
test_LCD_FMC_v3.elf:     file format elf32-littlearm

Sections:
Idx Name          Size      VMA       LMA       File off  Algn
  0 .isr_vector   00000298  08000000  08000000  00010000  2**0
                  CONTENTS, ALLOC, LOAD, READONLY, DATA
  1 .text         00003478  08000298  08000298  00010298  2**2
                  CONTENTS, ALLOC, LOAD, READONLY, CODE
  2 .rodata       00000010  08003710  08003710  00013710  2**0
                  CONTENTS, ALLOC, LOAD, READONLY, DATA
  3 .ARM.extab    00000000  08003720  08003720  00020010  2**0
                  CONTENTS
  4 .ARM          00000000  08003720  08003720  00020010  2**0
                  CONTENTS
  5 .preinit_array 00000000  08003720  08003720  00020010  2**0
                  CONTENTS, ALLOC, LOAD, DATA
  6 .init_array   00000004  08003720  08003720  00013720  2**2
                  CONTENTS, ALLOC, LOAD, DATA
  7 .fini_array   00000004  08003724  08003724  00013724  2**2
                  CONTENTS, ALLOC, LOAD, DATA
  8 .data         00000010  24000000  08003728  00020000  2**2
                  CONTENTS, ALLOC, LOAD, DATA
  9 .bss          0000015c  24000010  08003738  00020010  2**2
                  ALLOC
 10 ._user_heap_stack 00000604  2400016c  08003738  0002016c  2**0
                  ALLOC
 11 .ARM.attributes 0000002e  00000000  00000000  00020010  2**0
                  CONTENTS, READONLY
 12 .comment      0000007b  00000000  00000000  0002003e  2**0
                  CONTENTS, READONLY
 13 .debug_frame  0000004c  00000000  00000000  000200bc  2**2
                  CONTENTS, READONLY, DEBUGGING

Disassembly of section .text:

08000298 <__do_global_dtors_aux>:
 8000298:	b510      	push	{r4, lr}
 800029a:	4c05      	ldr	r4, [pc, #20]	; (80002b0 <__do_global_dtors_aux+0x18>)
 800029c:	7823      	ldrb	r3, [r4, #0]
 800029e:	b933      	cbnz	r3, 80002ae <__do_global_dtors_aux+0x16>
 80002a0:	4b04      	ldr	r3, [pc, #16]	; (80002b4 <__do_global_dtors_aux+0x1c>)
 80002a2:	b113      	cbz	r3, 80002aa <__do_global_dtors_aux+0x12>
 80002a4:	4804      	ldr	r0, [pc, #16]	; (80002b8 <__do_global_dtors_aux+0x20>)
 80002a6:	f3af 8000 	nop.w
 80002aa:	2301      	movs	r3, #1
 80002ac:	7023      	strb	r3, [r4, #0]
 80002ae:	bd10      	pop	{r4, pc}
 80002b0:	24000010 	.word	0x24000010
 80002b4:	00000000 	.word	0x00000000
 80002b8:	080036f8 	.word	0x080036f8

080002bc <frame_dummy>:
 80002bc:	b508      	push	{r3, lr}
 80002be:	4b03      	ldr	r3, [pc, #12]	; (80002cc <frame_dummy+0x10>)
 80002c0:	b11b      	cbz	r3, 80002ca <frame_dummy+0xe>
 80002c2:	4903      	ldr	r1, [pc, #12]	; (80002d0 <frame_dummy+0x14>)
 80002c4:	4803      	ldr	r0, [pc, #12]	; (80002d4 <frame_dummy+0x18>)
 80002c6:	f3af 8000 	nop.w
 80002ca:	bd08      	pop	{r3, pc}
 80002cc:	00000000 	.word	0x00000000
 80002d0:	24000014 	.word	0x24000014
 80002d4:	080036f8 	.word	0x080036f8

080002d8 <MX_FMC_Init>:
 80002d8:	4816      	ldr	r0, [pc, #88]	; (8000334 <MX_FMC_Init+0x5c>)
 80002da:	2200      	movs	r2, #0
 80002dc:	4b16      	ldr	r3, [pc, #88]	; (8000338 <MX_FMC_Init+0x60>)
 80002de:	2110      	movs	r1, #16
 80002e0:	b510      	push	{r4, lr}
 80002e2:	6003      	str	r3, [r0, #0]
 80002e4:	f503 7382 	add.w	r3, r3, #260	; 0x104
 80002e8:	b088      	sub	sp, #32
 80002ea:	24ff      	movs	r4, #255	; 0xff
 80002ec:	e9c0 3201 	strd	r3, r2, [r0, #4]
 80002f0:	f44f 5380 	mov.w	r3, #4096	; 0x1000
 80002f4:	9105      	str	r1, [sp, #20]
 80002f6:	9207      	str	r2, [sp, #28]
 80002f8:	e9c0 3209 	strd	r3, r2, [r0, #36]	; 0x24
 80002fc:	230f      	movs	r3, #15
 80002fe:	e9cd 3301 	strd	r3, r3, [sp, #4]
 8000302:	e9cd 4303 	strd	r4, r3, [sp, #12]
 8000306:	2311      	movs	r3, #17
 8000308:	e9c0 1205 	strd	r1, r2, [r0, #20]
 800030c:	a901      	add	r1, sp, #4
 800030e:	9306      	str	r3, [sp, #24]
 8000310:	e9c0 2203 	strd	r2, r2, [r0, #12]
 8000314:	e9c0 2207 	strd	r2, r2, [r0, #28]
 8000318:	e9c0 220b 	strd	r2, r2, [r0, #44]	; 0x2c
 800031c:	e9c0 220d 	strd	r2, r2, [r0, #52]	; 0x34
 8000320:	e9c0 220f 	strd	r2, r2, [r0, #60]	; 0x3c
 8000324:	f003 f8f6 	bl	8003514 <HAL_SRAM_Init>
 8000328:	b108      	cbz	r0, 800032e <MX_FMC_Init+0x56>
 800032a:	f000 f997 	bl	800065c <Error_Handler>
 800032e:	b008      	add	sp, #32
 8000330:	bd10      	pop	{r4, pc}
 8000332:	bf00      	nop
 8000334:	24000034 	.word	0x24000034
 8000338:	52004000 	.word	0x52004000

0800033c <HAL_SRAM_MspInit>:
 800033c:	b5f0      	push	{r4, r5, r6, r7, lr}
 800033e:	2214      	movs	r2, #20
 8000340:	b08b      	sub	sp, #44	; 0x2c
 8000342:	2100      	movs	r1, #0
 8000344:	eb0d 0002 	add.w	r0, sp, r2
 8000348:	f003 f9ce 	bl	80036e8 <memset>
 800034c:	4b2d      	ldr	r3, [pc, #180]	; (8000404 <HAL_SRAM_MspInit+0xc8>)
 800034e:	681d      	ldr	r5, [r3, #0]
 8000350:	2d00      	cmp	r5, #0
 8000352:	d155      	bne.n	8000400 <HAL_SRAM_MspInit+0xc4>
 8000354:	2201      	movs	r2, #1
 8000356:	2602      	movs	r6, #2
 8000358:	2403      	movs	r4, #3
 800035a:	270c      	movs	r7, #12
 800035c:	601a      	str	r2, [r3, #0]
 800035e:	a905      	add	r1, sp, #20
 8000360:	4b29      	ldr	r3, [pc, #164]	; (8000408 <HAL_SRAM_MspInit+0xcc>)
 8000362:	482a      	ldr	r0, [pc, #168]	; (800040c <HAL_SRAM_MspInit+0xd0>)
 8000364:	f8d3 20d4 	ldr.w	r2, [r3, #212]	; 0xd4
 8000368:	f442 5280 	orr.w	r2, r2, #4096	; 0x1000
 800036c:	f8c3 20d4 	str.w	r2, [r3, #212]	; 0xd4
 8000370:	f8d3 20d4 	ldr.w	r2, [r3, #212]	; 0xd4
 8000374:	f402 5280 	and.w	r2, r2, #4096	; 0x1000
 8000378:	9201      	str	r2, [sp, #4]
 800037a:	9a01      	ldr	r2, [sp, #4]
 800037c:	f8d3 20e0 	ldr.w	r2, [r3, #224]	; 0xe0
 8000380:	f042 0208 	orr.w	r2, r2, #8
 8000384:	f8c3 20e0 	str.w	r2, [r3, #224]	; 0xe0
 8000388:	f8d3 20e0 	ldr.w	r2, [r3, #224]	; 0xe0
 800038c:	f002 0208 	and.w	r2, r2, #8
 8000390:	9202      	str	r2, [sp, #8]
 8000392:	9a02      	ldr	r2, [sp, #8]
 8000394:	f8d3 20e0 	ldr.w	r2, [r3, #224]	; 0xe0
 8000398:	f042 0210 	orr.w	r2, r2, #16
 800039c:	f8c3 20e0 	str.w	r2, [r3, #224]	; 0xe0
 80003a0:	f8d3 20e0 	ldr.w	r2, [r3, #224]	; 0xe0
 80003a4:	f002 0210 	and.w	r2, r2, #16
 80003a8:	9203      	str	r2, [sp, #12]
 80003aa:	9a03      	ldr	r2, [sp, #12]
 80003ac:	f8d3 20e0 	ldr.w	r2, [r3, #224]	; 0xe0
 80003b0:	f042 0204 	orr.w	r2, r2, #4
 80003b4:	f8c3 20e0 	str.w	r2, [r3, #224]	; 0xe0
 80003b8:	f8d3 30e0 	ldr.w	r3, [r3, #224]	; 0xe0
 80003bc:	f003 0304 	and.w	r3, r3, #4
 80003c0:	9304      	str	r3, [sp, #16]
 80003c2:	9b04      	ldr	r3, [sp, #16]
 80003c4:	f64f 7380 	movw	r3, #65408	; 0xff80
 80003c8:	e9cd 4708 	strd	r4, r7, [sp, #32]
 80003cc:	e9cd 3605 	strd	r3, r6, [sp, #20]
 80003d0:	f001 fd5e 	bl	8001e90 <HAL_GPIO_Init>
 80003d4:	f64c 7333 	movw	r3, #53043	; 0xcf33
 80003d8:	a905      	add	r1, sp, #20
 80003da:	480d      	ldr	r0, [pc, #52]	; (8000410 <HAL_SRAM_MspInit+0xd4>)
 80003dc:	9709      	str	r7, [sp, #36]	; 0x24
 80003de:	e9cd 3605 	strd	r3, r6, [sp, #20]
 80003e2:	e9cd 5407 	strd	r5, r4, [sp, #28]
 80003e6:	f001 fd53 	bl	8001e90 <HAL_GPIO_Init>
 80003ea:	2380      	movs	r3, #128	; 0x80
 80003ec:	a905      	add	r1, sp, #20
 80003ee:	4809      	ldr	r0, [pc, #36]	; (8000414 <HAL_SRAM_MspInit+0xd8>)
 80003f0:	e9cd 3605 	strd	r3, r6, [sp, #20]
 80003f4:	2309      	movs	r3, #9
 80003f6:	e9cd 5407 	strd	r5, r4, [sp, #28]
 80003fa:	9309      	str	r3, [sp, #36]	; 0x24
 80003fc:	f001 fd48 	bl	8001e90 <HAL_GPIO_Init>
 8000400:	b00b      	add	sp, #44	; 0x2c
 8000402:	bdf0      	pop	{r4, r5, r6, r7, pc}
 8000404:	2400002c 	.word	0x2400002c
 8000408:	58024400 	.word	0x58024400
 800040c:	58021000 	.word	0x58021000
 8000410:	58020c00 	.word	0x58020c00
 8000414:	58020800 	.word	0x58020800

08000418 <MX_GPIO_Init>:
 8000418:	e92d 41f0 	stmdb	sp!, {r4, r5, r6, r7, r8, lr}
 800041c:	2214      	movs	r2, #20
 800041e:	b08a      	sub	sp, #40	; 0x28
 8000420:	2100      	movs	r1, #0
 8000422:	f8df 8110 	ldr.w	r8, [pc, #272]	; 8000534 <MX_GPIO_Init+0x11c>
 8000426:	eb0d 0002 	add.w	r0, sp, r2
 800042a:	4e3f      	ldr	r6, [pc, #252]	; (8000528 <MX_GPIO_Init+0x110>)
 800042c:	f003 f95c 	bl	80036e8 <memset>
 8000430:	4b3e      	ldr	r3, [pc, #248]	; (800052c <MX_GPIO_Init+0x114>)
 8000432:	4640      	mov	r0, r8
 8000434:	4f3e      	ldr	r7, [pc, #248]	; (8000530 <MX_GPIO_Init+0x118>)
 8000436:	f8d3 20e0 	ldr.w	r2, [r3, #224]	; 0xe0
 800043a:	f44f 6100 	mov.w	r1, #2048	; 0x800
 800043e:	2400      	movs	r4, #0
 8000440:	2501      	movs	r5, #1
 8000442:	f042 0204 	orr.w	r2, r2, #4
 8000446:	f8c3 20e0 	str.w	r2, [r3, #224]	; 0xe0
 800044a:	f8d3 20e0 	ldr.w	r2, [r3, #224]	; 0xe0
 800044e:	f002 0204 	and.w	r2, r2, #4
 8000452:	9200      	str	r2, [sp, #0]
 8000454:	9a00      	ldr	r2, [sp, #0]
 8000456:	f8d3 20e0 	ldr.w	r2, [r3, #224]	; 0xe0
 800045a:	f042 0280 	orr.w	r2, r2, #128	; 0x80
 800045e:	f8c3 20e0 	str.w	r2, [r3, #224]	; 0xe0
 8000462:	f8d3 20e0 	ldr.w	r2, [r3, #224]	; 0xe0
 8000466:	f002 0280 	and.w	r2, r2, #128	; 0x80
 800046a:	9201      	str	r2, [sp, #4]
 800046c:	9a01      	ldr	r2, [sp, #4]
 800046e:	f8d3 20e0 	ldr.w	r2, [r3, #224]	; 0xe0
 8000472:	f042 0210 	orr.w	r2, r2, #16
 8000476:	f8c3 20e0 	str.w	r2, [r3, #224]	; 0xe0
 800047a:	f8d3 20e0 	ldr.w	r2, [r3, #224]	; 0xe0
 800047e:	f002 0210 	and.w	r2, r2, #16
 8000482:	9202      	str	r2, [sp, #8]
 8000484:	9a02      	ldr	r2, [sp, #8]
 8000486:	f8d3 20e0 	ldr.w	r2, [r3, #224]	; 0xe0
 800048a:	f042 0202 	orr.w	r2, r2, #2
 800048e:	f8c3 20e0 	str.w	r2, [r3, #224]	; 0xe0
 8000492:	f8d3 20e0 	ldr.w	r2, [r3, #224]	; 0xe0
 8000496:	f002 0202 	and.w	r2, r2, #2
 800049a:	9203      	str	r2, [sp, #12]
 800049c:	9a03      	ldr	r2, [sp, #12]
 800049e:	f8d3 20e0 	ldr.w	r2, [r3, #224]	; 0xe0
 80004a2:	f042 0208 	orr.w	r2, r2, #8
 80004a6:	f8c3 20e0 	str.w	r2, [r3, #224]	; 0xe0
 80004aa:	2200      	movs	r2, #0
 80004ac:	f8d3 30e0 	ldr.w	r3, [r3, #224]	; 0xe0
 80004b0:	f003 0308 	and.w	r3, r3, #8
 80004b4:	9304      	str	r3, [sp, #16]
 80004b6:	9b04      	ldr	r3, [sp, #16]
 80004b8:	f001 fdd4 	bl	8002064 <HAL_GPIO_WritePin>
 80004bc:	4630      	mov	r0, r6
 80004be:	2200      	movs	r2, #0
 80004c0:	f44f 5180 	mov.w	r1, #4096	; 0x1000
 80004c4:	f001 fdce 	bl	8002064 <HAL_GPIO_WritePin>
 80004c8:	2200      	movs	r2, #0
 80004ca:	4638      	mov	r0, r7
 80004cc:	f44f 6180 	mov.w	r1, #1024	; 0x400
 80004d0:	f001 fdc8 	bl	8002064 <HAL_GPIO_WritePin>
 80004d4:	f44f 6300 	mov.w	r3, #2048	; 0x800
 80004d8:	a905      	add	r1, sp, #20
 80004da:	4640      	mov	r0, r8
 80004dc:	e9cd 3505 	strd	r3, r5, [sp, #20]
 80004e0:	e9cd 4407 	strd	r4, r4, [sp, #28]
 80004e4:	f001 fcd4 	bl	8001e90 <HAL_GPIO_Init>
 80004e8:	f44f 5380 	mov.w	r3, #4096	; 0x1000
 80004ec:	a905      	add	r1, sp, #20
 80004ee:	4630      	mov	r0, r6
 80004f0:	e9cd 3505 	strd	r3, r5, [sp, #20]
 80004f4:	e9cd 4407 	strd	r4, r4, [sp, #28]
 80004f8:	f001 fcca 	bl	8001e90 <HAL_GPIO_Init>
 80004fc:	f44f 5300 	mov.w	r3, #8192	; 0x2000
 8000500:	a905      	add	r1, sp, #20
 8000502:	4630      	mov	r0, r6
 8000504:	9407      	str	r4, [sp, #28]
 8000506:	e9cd 3405 	strd	r3, r4, [sp, #20]
 800050a:	f001 fcc1 	bl	8001e90 <HAL_GPIO_Init>
 800050e:	f44f 6380 	mov.w	r3, #1024	; 0x400
 8000512:	a905      	add	r1, sp, #20
 8000514:	4638      	mov	r0, r7
 8000516:	e9cd 3505 	strd	r3, r5, [sp, #20]
 800051a:	e9cd 4407 	strd	r4, r4, [sp, #28]
 800051e:	f001 fcb7 	bl	8001e90 <HAL_GPIO_Init>
 8000522:	b00a      	add	sp, #40	; 0x28
 8000524:	e8bd 81f0 	ldmia.w	sp!, {r4, r5, r6, r7, r8, pc}
 8000528:	58020c00 	.word	0x58020c00
 800052c:	58024400 	.word	0x58024400
 8000530:	58020800 	.word	0x58020800
 8000534:	58020400 	.word	0x58020400

08000538 <SystemClock_Config>:
 8000538:	b530      	push	{r4, r5, lr}
 800053a:	b0cd      	sub	sp, #308	; 0x134
 800053c:	224c      	movs	r2, #76	; 0x4c
 800053e:	2100      	movs	r1, #0
 8000540:	a80a      	add	r0, sp, #40	; 0x28
 8000542:	f003 f8d1 	bl	80036e8 <memset>
 8000546:	2220      	movs	r2, #32
 8000548:	2100      	movs	r1, #0
 800054a:	a802      	add	r0, sp, #8
 800054c:	f003 f8cc 	bl	80036e8 <memset>
 8000550:	22bc      	movs	r2, #188	; 0xbc
 8000552:	2100      	movs	r1, #0
 8000554:	a81d      	add	r0, sp, #116	; 0x74
 8000556:	f003 f8c7 	bl	80036e8 <memset>
 800055a:	2002      	movs	r0, #2
 800055c:	f001 fd88 	bl	8002070 <HAL_PWREx_ConfigSupply>
 8000560:	2300      	movs	r3, #0
 8000562:	9301      	str	r3, [sp, #4]
 8000564:	4b32      	ldr	r3, [pc, #200]	; (8000630 <SystemClock_Config+0xf8>)
 8000566:	6ada      	ldr	r2, [r3, #44]	; 0x2c
 8000568:	f022 0201 	bic.w	r2, r2, #1
 800056c:	62da      	str	r2, [r3, #44]	; 0x2c
 800056e:	6adb      	ldr	r3, [r3, #44]	; 0x2c
 8000570:	f003 0301 	and.w	r3, r3, #1
 8000574:	9301      	str	r3, [sp, #4]
 8000576:	4b2f      	ldr	r3, [pc, #188]	; (8000634 <SystemClock_Config+0xfc>)
 8000578:	699a      	ldr	r2, [r3, #24]
 800057a:	f442 4240 	orr.w	r2, r2, #49152	; 0xc000
 800057e:	619a      	str	r2, [r3, #24]
 8000580:	699a      	ldr	r2, [r3, #24]
 8000582:	f402 4240 	and.w	r2, r2, #49152	; 0xc000
 8000586:	9201      	str	r2, [sp, #4]
 8000588:	9a01      	ldr	r2, [sp, #4]
 800058a:	699a      	ldr	r2, [r3, #24]
 800058c:	0492      	lsls	r2, r2, #18
 800058e:	d5fc      	bpl.n	800058a <SystemClock_Config+0x52>
 8000590:	4a29      	ldr	r2, [pc, #164]	; (8000638 <SystemClock_Config+0x100>)
 8000592:	2501      	movs	r5, #1
 8000594:	2402      	movs	r4, #2
 8000596:	f04f 0c0c 	mov.w	ip, #12
 800059a:	6a93      	ldr	r3, [r2, #40]	; 0x28
 800059c:	a80a      	add	r0, sp, #40	; 0x28
 800059e:	f023 0303 	bic.w	r3, r3, #3
 80005a2:	f043 0302 	orr.w	r3, r3, #2
 80005a6:	6293      	str	r3, [r2, #40]	; 0x28
 80005a8:	f44f 3380 	mov.w	r3, #65536	; 0x10000
 80005ac:	9515      	str	r5, [sp, #84]	; 0x54
 80005ae:	e9cd 530a 	strd	r5, r3, [sp, #40]	; 0x28
 80005b2:	2332      	movs	r3, #50	; 0x32
 80005b4:	e9cd 3416 	strd	r3, r4, [sp, #88]	; 0x58
 80005b8:	2300      	movs	r3, #0
 80005ba:	e9cd 4413 	strd	r4, r4, [sp, #76]	; 0x4c
 80005be:	e9cd 4418 	strd	r4, r4, [sp, #96]	; 0x60
 80005c2:	e9cd c31a 	strd	ip, r3, [sp, #104]	; 0x68
 80005c6:	931c      	str	r3, [sp, #112]	; 0x70
 80005c8:	f001 fd76 	bl	80020b8 <HAL_RCC_OscConfig>
 80005cc:	b108      	cbz	r0, 80005d2 <SystemClock_Config+0x9a>
 80005ce:	b672      	cpsid	i
 80005d0:	e7fe      	b.n	80005d0 <SystemClock_Config+0x98>
 80005d2:	213f      	movs	r1, #63	; 0x3f
 80005d4:	2303      	movs	r3, #3
 80005d6:	9004      	str	r0, [sp, #16]
 80005d8:	2008      	movs	r0, #8
 80005da:	f44f 6280 	mov.w	r2, #1024	; 0x400
 80005de:	e9cd 1302 	strd	r1, r3, [sp, #8]
 80005e2:	2340      	movs	r3, #64	; 0x40
 80005e4:	4621      	mov	r1, r4
 80005e6:	e9cd 0305 	strd	r0, r3, [sp, #20]
 80005ea:	a802      	add	r0, sp, #8
 80005ec:	9307      	str	r3, [sp, #28]
 80005ee:	e9cd 2308 	strd	r2, r3, [sp, #32]
 80005f2:	f002 f891 	bl	8002718 <HAL_RCC_ClockConfig>
 80005f6:	b108      	cbz	r0, 80005fc <SystemClock_Config+0xc4>
 80005f8:	b672      	cpsid	i
 80005fa:	e7fe      	b.n	80005fa <SystemClock_Config+0xc2>
 80005fc:	4b0f      	ldr	r3, [pc, #60]	; (800063c <SystemClock_Config+0x104>)
 80005fe:	2214      	movs	r2, #20
 8000600:	9025      	str	r0, [sp, #148]	; 0x94
 8000602:	942e      	str	r4, [sp, #184]	; 0xb8
 8000604:	e9cd 351d 	strd	r3, r5, [sp, #116]	; 0x74
 8000608:	2304      	movs	r3, #4
 800060a:	e9cd 231f 	strd	r2, r3, [sp, #124]	; 0x7c
 800060e:	e9cd 4321 	strd	r4, r3, [sp, #132]	; 0x84
 8000612:	23c0      	movs	r3, #192	; 0xc0
 8000614:	e9cd 3023 	strd	r3, r0, [sp, #140]	; 0x8c
 8000618:	f44f 5380 	mov.w	r3, #4096	; 0x1000
 800061c:	a81d      	add	r0, sp, #116	; 0x74
 800061e:	9334      	str	r3, [sp, #208]	; 0xd0
 8000620:	f002 fa90 	bl	8002b44 <HAL_RCCEx_PeriphCLKConfig>
 8000624:	b108      	cbz	r0, 800062a <SystemClock_Config+0xf2>
 8000626:	b672      	cpsid	i
 8000628:	e7fe      	b.n	8000628 <SystemClock_Config+0xf0>
 800062a:	b04d      	add	sp, #308	; 0x134
 800062c:	bd30      	pop	{r4, r5, pc}
 800062e:	bf00      	nop
 8000630:	58000400 	.word	0x58000400
 8000634:	58024800 	.word	0x58024800
 8000638:	58024400 	.word	0x58024400
 800063c:	01001000 	.word	0x01001000

08000640 <main>:
 8000640:	b508      	push	{r3, lr}
 8000642:	f001 fb3b 	bl	8001cbc <HAL_Init>
 8000646:	f7ff ff77 	bl	8000538 <SystemClock_Config>
 800064a:	f7ff fee5 	bl	8000418 <MX_GPIO_Init>
 800064e:	f7ff fe43 	bl	80002d8 <MX_FMC_Init>
 8000652:	f000 f805 	bl	8000660 <MX_SPI2_Init>
 8000656:	f000 fa6b 	bl	8000b30 <LCD_Init>
 800065a:	e7fe      	b.n	800065a <main+0x1a>

0800065c <Error_Handler>:
 800065c:	b672      	cpsid	i
 800065e:	e7fe      	b.n	800065e <Error_Handler+0x2>

08000660 <MX_SPI2_Init>:
 8000660:	b508      	push	{r3, lr}
 8000662:	4814      	ldr	r0, [pc, #80]	; (80006b4 <MX_SPI2_Init+0x54>)
 8000664:	f44f 0380 	mov.w	r3, #4194304	; 0x400000
 8000668:	4a13      	ldr	r2, [pc, #76]	; (80006b8 <MX_SPI2_Init+0x58>)
 800066a:	e9c0 2300 	strd	r2, r3, [r0]
 800066e:	2300      	movs	r3, #0
 8000670:	2203      	movs	r2, #3
 8000672:	e9c0 3202 	strd	r3, r2, [r0, #8]
 8000676:	f04f 6280 	mov.w	r2, #67108864	; 0x4000000
 800067a:	e9c0 2306 	strd	r2, r3, [r0, #24]
 800067e:	f04f 4280 	mov.w	r2, #1073741824	; 0x40000000
 8000682:	e9c0 3304 	strd	r3, r3, [r0, #16]
 8000686:	e9c0 3308 	strd	r3, r3, [r0, #32]
 800068a:	e9c0 330a 	strd	r3, r3, [r0, #40]	; 0x28
 800068e:	e9c0 230d 	strd	r2, r3, [r0, #52]	; 0x34
 8000692:	e9c0 330f 	strd	r3, r3, [r0, #60]	; 0x3c
 8000696:	e9c0 3311 	strd	r3, r3, [r0, #68]	; 0x44
 800069a:	e9c0 3313 	strd	r3, r3, [r0, #76]	; 0x4c
 800069e:	e9c0 3315 	strd	r3, r3, [r0, #84]	; 0x54
 80006a2:	f002 fead 	bl	8003400 <HAL_SPI_Init>
 80006a6:	b118      	cbz	r0, 80006b0 <MX_SPI2_Init+0x50>
 80006a8:	e8bd 4008 	ldmia.w	sp!, {r3, lr}
 80006ac:	f7ff bfd6 	b.w	800065c <Error_Handler>
 80006b0:	bd08      	pop	{r3, pc}
 80006b2:	bf00      	nop
 80006b4:	24000080 	.word	0x24000080
 80006b8:	40003800 	.word	0x40003800

080006bc <HAL_SPI_MspInit>:
 80006bc:	b510      	push	{r4, lr}
 80006be:	b088      	sub	sp, #32
 80006c0:	4604      	mov	r4, r0
 80006c2:	2214      	movs	r2, #20
 80006c4:	2100      	movs	r1, #0
 80006c6:	a803      	add	r0, sp, #12
 80006c8:	f003 f80e 	bl	80036e8 <memset>
 80006cc:	6822      	ldr	r2, [r4, #0]
 80006ce:	4b14      	ldr	r3, [pc, #80]	; (8000720 <HAL_SPI_MspInit+0x64>)
 80006d0:	429a      	cmp	r2, r3
 80006d2:	d123      	bne.n	800071c <HAL_SPI_MspInit+0x60>
 80006d4:	4b13      	ldr	r3, [pc, #76]	; (8000724 <HAL_SPI_MspInit+0x68>)
 80006d6:	a903      	add	r1, sp, #12
 80006d8:	4813      	ldr	r0, [pc, #76]	; (8000728 <HAL_SPI_MspInit+0x6c>)
 80006da:	f8d3 20e8 	ldr.w	r2, [r3, #232]	; 0xe8
 80006de:	f442 4280 	orr.w	r2, r2, #16384	; 0x4000
 80006e2:	f8c3 20e8 	str.w	r2, [r3, #232]	; 0xe8
 80006e6:	f8d3 20e8 	ldr.w	r2, [r3, #232]	; 0xe8
 80006ea:	f402 4280 	and.w	r2, r2, #16384	; 0x4000
 80006ee:	9201      	str	r2, [sp, #4]
 80006f0:	9a01      	ldr	r2, [sp, #4]
 80006f2:	f8d3 20e0 	ldr.w	r2, [r3, #224]	; 0xe0
 80006f6:	f042 0202 	orr.w	r2, r2, #2
 80006fa:	f8c3 20e0 	str.w	r2, [r3, #224]	; 0xe0
 80006fe:	f44f 4244 	mov.w	r2, #50176	; 0xc400
 8000702:	f8d3 30e0 	ldr.w	r3, [r3, #224]	; 0xe0
 8000706:	f003 0302 	and.w	r3, r3, #2
 800070a:	9302      	str	r3, [sp, #8]
 800070c:	9b02      	ldr	r3, [sp, #8]
 800070e:	2302      	movs	r3, #2
 8000710:	e9cd 2303 	strd	r2, r3, [sp, #12]
 8000714:	2305      	movs	r3, #5
 8000716:	9307      	str	r3, [sp, #28]
 8000718:	f001 fbba 	bl	8001e90 <HAL_GPIO_Init>
 800071c:	b008      	add	sp, #32
 800071e:	bd10      	pop	{r4, pc}
 8000720:	40003800 	.word	0x40003800
 8000724:	58024400 	.word	0x58024400
 8000728:	58020400 	.word	0x58020400

0800072c <HAL_MspInit>:
 800072c:	4b07      	ldr	r3, [pc, #28]	; (800074c <HAL_MspInit+0x20>)
 800072e:	b082      	sub	sp, #8
 8000730:	f8d3 20f4 	ldr.w	r2, [r3, #244]	; 0xf4
 8000734:	f042 0202 	orr.w	r2, r2, #2
 8000738:	f8c3 20f4 	str.w	r2, [r3, #244]	; 0xf4
 800073c:	f8d3 30f4 	ldr.w	r3, [r3, #244]	; 0xf4
 8000740:	f003 0302 	and.w	r3, r3, #2
 8000744:	9301      	str	r3, [sp, #4]
 8000746:	9b01      	ldr	r3, [sp, #4]
 8000748:	b002      	add	sp, #8
 800074a:	4770      	bx	lr
 800074c:	58024400 	.word	0x58024400

08000750 <NMI_Handler>:
 8000750:	e7fe      	b.n	8000750 <NMI_Handler>

08000752 <HardFault_Handler>:
 8000752:	e7fe      	b.n	8000752 <HardFault_Handler>

08000754 <MemManage_Handler>:
 8000754:	e7fe      	b.n	8000754 <MemManage_Handler>

08000756 <BusFault_Handler>:
 8000756:	e7fe      	b.n	8000756 <BusFault_Handler>

08000758 <UsageFault_Handler>:
 8000758:	e7fe      	b.n	8000758 <UsageFault_Handler>

0800075a <SVC_Handler>:
 800075a:	4770      	bx	lr

0800075c <DebugMon_Handler>:
 800075c:	4770      	bx	lr

0800075e <PendSV_Handler>:
 800075e:	4770      	bx	lr

08000760 <SysTick_Handler>:
 8000760:	f001 bada 	b.w	8001d18 <HAL_IncTick>

08000764 <SystemInit>:
 8000764:	4a28      	ldr	r2, [pc, #160]	; (8000808 <SystemInit+0xa4>)
 8000766:	f8d2 3088 	ldr.w	r3, [r2, #136]	; 0x88
 800076a:	f443 0370 	orr.w	r3, r3, #15728640	; 0xf00000
 800076e:	f8c2 3088 	str.w	r3, [r2, #136]	; 0x88
 8000772:	4a26      	ldr	r2, [pc, #152]	; (800080c <SystemInit+0xa8>)
 8000774:	6813      	ldr	r3, [r2, #0]
 8000776:	f003 030f 	and.w	r3, r3, #15
 800077a:	2b06      	cmp	r3, #6
 800077c:	d805      	bhi.n	800078a <SystemInit+0x26>
 800077e:	6813      	ldr	r3, [r2, #0]
 8000780:	f023 030f 	bic.w	r3, r3, #15
 8000784:	f043 0307 	orr.w	r3, r3, #7
 8000788:	6013      	str	r3, [r2, #0]
 800078a:	4b21      	ldr	r3, [pc, #132]	; (8000810 <SystemInit+0xac>)
 800078c:	681a      	ldr	r2, [r3, #0]
 800078e:	f042 0201 	orr.w	r2, r2, #1
 8000792:	601a      	str	r2, [r3, #0]
 8000794:	2200      	movs	r2, #0
 8000796:	611a      	str	r2, [r3, #16]
 8000798:	4a1e      	ldr	r2, [pc, #120]	; (8000814 <SystemInit+0xb0>)
 800079a:	6819      	ldr	r1, [r3, #0]
 800079c:	400a      	ands	r2, r1
 800079e:	491b      	ldr	r1, [pc, #108]	; (800080c <SystemInit+0xa8>)
 80007a0:	601a      	str	r2, [r3, #0]
 80007a2:	680a      	ldr	r2, [r1, #0]
 80007a4:	f002 020f 	and.w	r2, r2, #15
 80007a8:	2a07      	cmp	r2, #7
 80007aa:	d905      	bls.n	80007b8 <SystemInit+0x54>
 80007ac:	680a      	ldr	r2, [r1, #0]
 80007ae:	f022 020f 	bic.w	r2, r2, #15
 80007b2:	f042 0207 	orr.w	r2, r2, #7
 80007b6:	600a      	str	r2, [r1, #0]
 80007b8:	2200      	movs	r2, #0
 80007ba:	4917      	ldr	r1, [pc, #92]	; (8000818 <SystemInit+0xb4>)
 80007bc:	619a      	str	r2, [r3, #24]
 80007be:	61da      	str	r2, [r3, #28]
 80007c0:	621a      	str	r2, [r3, #32]
 80007c2:	6299      	str	r1, [r3, #40]	; 0x28
 80007c4:	4915      	ldr	r1, [pc, #84]	; (800081c <SystemInit+0xb8>)
 80007c6:	62d9      	str	r1, [r3, #44]	; 0x2c
 80007c8:	4915      	ldr	r1, [pc, #84]	; (8000820 <SystemInit+0xbc>)
 80007ca:	6319      	str	r1, [r3, #48]	; 0x30
 80007cc:	635a      	str	r2, [r3, #52]	; 0x34
 80007ce:	6399      	str	r1, [r3, #56]	; 0x38
 80007d0:	63da      	str	r2, [r3, #60]	; 0x3c
 80007d2:	6419      	str	r1, [r3, #64]	; 0x40
 80007d4:	645a      	str	r2, [r3, #68]	; 0x44
 80007d6:	6819      	ldr	r1, [r3, #0]
 80007d8:	f421 2180 	bic.w	r1, r1, #262144	; 0x40000
 80007dc:	6019      	str	r1, [r3, #0]
 80007de:	661a      	str	r2, [r3, #96]	; 0x60
 80007e0:	4b10      	ldr	r3, [pc, #64]	; (8000824 <SystemInit+0xc0>)
 80007e2:	681b      	ldr	r3, [r3, #0]
 80007e4:	0c1b      	lsrs	r3, r3, #16
 80007e6:	041b      	lsls	r3, r3, #16
 80007e8:	f1b3 5f00 	cmp.w	r3, #536870912	; 0x20000000
 80007ec:	d202      	bcs.n	80007f4 <SystemInit+0x90>
 80007ee:	4b0e      	ldr	r3, [pc, #56]	; (8000828 <SystemInit+0xc4>)
 80007f0:	2201      	movs	r2, #1
 80007f2:	601a      	str	r2, [r3, #0]
 80007f4:	4b0d      	ldr	r3, [pc, #52]	; (800082c <SystemInit+0xc8>)
 80007f6:	f243 02d2 	movw	r2, #12498	; 0x30d2
 80007fa:	601a      	str	r2, [r3, #0]
 80007fc:	f04f 6200 	mov.w	r2, #134217728	; 0x8000000
 8000800:	4b01      	ldr	r3, [pc, #4]	; (8000808 <SystemInit+0xa4>)
 8000802:	609a      	str	r2, [r3, #8]
 8000804:	4770      	bx	lr
 8000806:	bf00      	nop
 8000808:	e000ed00 	.word	0xe000ed00
 800080c:	52002000 	.word	0x52002000
 8000810:	58024400 	.word	0x58024400
 8000814:	eaf6ed7f 	.word	0xeaf6ed7f
 8000818:	02020200 	.word	0x02020200
 800081c:	01ff0000 	.word	0x01ff0000
 8000820:	01010280 	.word	0x01010280
 8000824:	5c001000 	.word	0x5c001000
 8000828:	51008108 	.word	0x51008108
 800082c:	52004000 	.word	0x52004000

08000830 <Reset_Handler>:
 8000830:	f8df d034 	ldr.w	sp, [pc, #52]	; 8000868 <LoopFillZerobss+0x10>
 8000834:	f7ff ff96 	bl	8000764 <SystemInit>
 8000838:	2100      	movs	r1, #0
 800083a:	e003      	b.n	8000844 <LoopCopyDataInit>

0800083c <CopyDataInit>:
 800083c:	4b0b      	ldr	r3, [pc, #44]	; (800086c <LoopFillZerobss+0x14>)
 800083e:	585b      	ldr	r3, [r3, r1]
 8000840:	5043      	str	r3, [r0, r1]
 8000842:	3104      	adds	r1, #4

08000844 <LoopCopyDataInit>:
 8000844:	480a      	ldr	r0, [pc, #40]	; (8000870 <LoopFillZerobss+0x18>)
 8000846:	4b0b      	ldr	r3, [pc, #44]	; (8000874 <LoopFillZerobss+0x1c>)
 8000848:	1842      	adds	r2, r0, r1
 800084a:	429a      	cmp	r2, r3
 800084c:	d3f6      	bcc.n	800083c <CopyDataInit>
 800084e:	4a0a      	ldr	r2, [pc, #40]	; (8000878 <LoopFillZerobss+0x20>)
 8000850:	e002      	b.n	8000858 <LoopFillZerobss>

08000852 <FillZerobss>:
 8000852:	2300      	movs	r3, #0
 8000854:	f842 3b04 	str.w	r3, [r2], #4

08000858 <LoopFillZerobss>:
 8000858:	4b08      	ldr	r3, [pc, #32]	; (800087c <LoopFillZerobss+0x24>)
 800085a:	429a      	cmp	r2, r3
 800085c:	d3f9      	bcc.n	8000852 <FillZerobss>
 800085e:	f002 ff1f 	bl	80036a0 <__libc_init_array>
 8000862:	f7ff feed 	bl	8000640 <main>
 8000866:	4770      	bx	lr
 8000868:	24080000 	.word	0x24080000
 800086c:	08003728 	.word	0x08003728
 8000870:	24000000 	.word	0x24000000
 8000874:	24000010 	.word	0x24000010
 8000878:	24000010 	.word	0x24000010
 800087c:	2400016c 	.word	0x2400016c

08000880 <ADC3_IRQHandler>:
 8000880:	e7fe      	b.n	8000880 <ADC3_IRQHandler>
	...

08000884 <delay_us>:
 8000884:	4b09      	ldr	r3, [pc, #36]	; (80008ac <delay_us+0x28>)
 8000886:	4a0a      	ldr	r2, [pc, #40]	; (80008b0 <delay_us+0x2c>)
 8000888:	681b      	ldr	r3, [r3, #0]
 800088a:	b530      	push	{r4, r5, lr}
 800088c:	4358      	muls	r0, r3
 800088e:	6855      	ldr	r5, [r2, #4]
 8000890:	2300      	movs	r3, #0
 8000892:	6894      	ldr	r4, [r2, #8]
 8000894:	6891      	ldr	r1, [r2, #8]
 8000896:	428c      	cmp	r4, r1
 8000898:	d0fc      	beq.n	8000894 <delay_us+0x10>
 800089a:	4423      	add	r3, r4
 800089c:	460c      	mov	r4, r1
 800089e:	bf98      	it	ls
 80008a0:	195b      	addls	r3, r3, r5
 80008a2:	1a5b      	subs	r3, r3, r1
 80008a4:	4283      	cmp	r3, r0
 80008a6:	d3f5      	bcc.n	8000894 <delay_us+0x10>
 80008a8:	bd30      	pop	{r4, r5, pc}
 80008aa:	bf00      	nop
 80008ac:	24000030 	.word	0x24000030
 80008b0:	e000e010 	.word	0xe000e010

080008b4 <delay_ms>:
 80008b4:	b538      	push	{r3, r4, r5, lr}
 80008b6:	4605      	mov	r5, r0
 80008b8:	2400      	movs	r4, #0
 80008ba:	42a5      	cmp	r5, r4
 80008bc:	d800      	bhi.n	80008c0 <delay_ms+0xc>
 80008be:	bd38      	pop	{r3, r4, r5, pc}
 80008c0:	f44f 707a 	mov.w	r0, #1000	; 0x3e8
 80008c4:	3401      	adds	r4, #1
 80008c6:	f7ff ffdd 	bl	8000884 <delay_us>
 80008ca:	e7f6      	b.n	80008ba <delay_ms+0x6>

080008cc <LCD_WriteRAM_Prepare>:
 80008cc:	4b02      	ldr	r3, [pc, #8]	; (80008d8 <LCD_WriteRAM_Prepare+0xc>)
 80008ce:	891a      	ldrh	r2, [r3, #8]
 80008d0:	4b02      	ldr	r3, [pc, #8]	; (80008dc <LCD_WriteRAM_Prepare+0x10>)
 80008d2:	801a      	strh	r2, [r3, #0]
 80008d4:	4770      	bx	lr
 80008d6:	bf00      	nop
 80008d8:	24000108 	.word	0x24000108
 80008dc:	6c0007fe 	.word	0x6c0007fe

080008e0 <LCD_MPU_Config>:
 80008e0:	b51f      	push	{r0, r1, r2, r3, r4, lr}
 80008e2:	f001 fa8b 	bl	8001dfc <HAL_MPU_Disable>
 80008e6:	2301      	movs	r3, #1
 80008e8:	f04f 42c0 	mov.w	r2, #1610612736	; 0x60000000
 80008ec:	4668      	mov	r0, sp
 80008ee:	f8ad 3000 	strh.w	r3, [sp]
 80008f2:	4b07      	ldr	r3, [pc, #28]	; (8000910 <LCD_MPU_Config+0x30>)
 80008f4:	e9cd 2301 	strd	r2, r3, [sp, #4]
 80008f8:	f04f 7380 	mov.w	r3, #16777216	; 0x1000000
 80008fc:	9303      	str	r3, [sp, #12]
 80008fe:	f001 fa9f 	bl	8001e40 <HAL_MPU_ConfigRegion>
 8000902:	2004      	movs	r0, #4
 8000904:	f001 fa8a 	bl	8001e1c <HAL_MPU_Enable>
 8000908:	b005      	add	sp, #20
 800090a:	f85d fb04 	ldr.w	pc, [sp], #4
 800090e:	bf00      	nop
 8000910:	0300001b 	.word	0x0300001b

08000914 <LCD_GPIOInit>:
 8000914:	b084      	sub	sp, #16
 8000916:	b570      	push	{r4, r5, r6, lr}
 8000918:	b08e      	sub	sp, #56	; 0x38
 800091a:	2603      	movs	r6, #3
 800091c:	f44f 5580 	mov.w	r5, #4096	; 0x1000
 8000920:	ac12      	add	r4, sp, #72	; 0x48
 8000922:	e884 000f 	stmia.w	r4, {r0, r1, r2, r3}
 8000926:	4b27      	ldr	r3, [pc, #156]	; (80009c4 <LCD_GPIOInit+0xb0>)
 8000928:	2401      	movs	r4, #1
 800092a:	a902      	add	r1, sp, #8
 800092c:	4826      	ldr	r0, [pc, #152]	; (80009c8 <LCD_GPIOInit+0xb4>)
 800092e:	f8d3 20e0 	ldr.w	r2, [r3, #224]	; 0xe0
 8000932:	f042 0202 	orr.w	r2, r2, #2
 8000936:	f8c3 20e0 	str.w	r2, [r3, #224]	; 0xe0
 800093a:	f8d3 30e0 	ldr.w	r3, [r3, #224]	; 0xe0
 800093e:	9404      	str	r4, [sp, #16]
 8000940:	f003 0302 	and.w	r3, r3, #2
 8000944:	9605      	str	r6, [sp, #20]
 8000946:	9301      	str	r3, [sp, #4]
 8000948:	9b01      	ldr	r3, [sp, #4]
 800094a:	f44f 6380 	mov.w	r3, #1024	; 0x400
 800094e:	e9cd 3402 	strd	r3, r4, [sp, #8]
 8000952:	f001 fa9d 	bl	8001e90 <HAL_GPIO_Init>
 8000956:	a902      	add	r1, sp, #8
 8000958:	481c      	ldr	r0, [pc, #112]	; (80009cc <LCD_GPIOInit+0xb8>)
 800095a:	e9cd 5402 	strd	r5, r4, [sp, #8]
 800095e:	e9cd 4604 	strd	r4, r6, [sp, #16]
 8000962:	f001 fa95 	bl	8001e90 <HAL_GPIO_Init>
 8000966:	f7ff ffbb 	bl	80008e0 <LCD_MPU_Config>
 800096a:	4819      	ldr	r0, [pc, #100]	; (80009d0 <LCD_GPIOInit+0xbc>)
 800096c:	4b19      	ldr	r3, [pc, #100]	; (80009d4 <LCD_GPIOInit+0xc0>)
 800096e:	2210      	movs	r2, #16
 8000970:	a907      	add	r1, sp, #28
 8000972:	6003      	str	r3, [r0, #0]
 8000974:	f503 7382 	add.w	r3, r3, #260	; 0x104
 8000978:	6043      	str	r3, [r0, #4]
 800097a:	2300      	movs	r3, #0
 800097c:	e9c0 2305 	strd	r2, r3, [r0, #20]
 8000980:	f44f 4280 	mov.w	r2, #16384	; 0x4000
 8000984:	6103      	str	r3, [r0, #16]
 8000986:	6343      	str	r3, [r0, #52]	; 0x34
 8000988:	930d      	str	r3, [sp, #52]	; 0x34
 800098a:	9318      	str	r3, [sp, #96]	; 0x60
 800098c:	e9c0 230b 	strd	r2, r3, [r0, #44]	; 0x2c
 8000990:	f44f 1280 	mov.w	r2, #1048576	; 0x100000
 8000994:	6382      	str	r2, [r0, #56]	; 0x38
 8000996:	2211      	movs	r2, #17
 8000998:	e9cd 2307 	strd	r2, r3, [sp, #28]
 800099c:	2255      	movs	r2, #85	; 0x55
 800099e:	9209      	str	r2, [sp, #36]	; 0x24
 80009a0:	2215      	movs	r2, #21
 80009a2:	e9cd 2312 	strd	r2, r3, [sp, #72]	; 0x48
 80009a6:	9214      	str	r2, [sp, #80]	; 0x50
 80009a8:	aa12      	add	r2, sp, #72	; 0x48
 80009aa:	e9c0 3302 	strd	r3, r3, [r0, #8]
 80009ae:	e9c0 3307 	strd	r3, r3, [r0, #28]
 80009b2:	e9c0 5309 	strd	r5, r3, [r0, #36]	; 0x24
 80009b6:	f002 fdad 	bl	8003514 <HAL_SRAM_Init>
 80009ba:	b00e      	add	sp, #56	; 0x38
 80009bc:	e8bd 4070 	ldmia.w	sp!, {r4, r5, r6, lr}
 80009c0:	b004      	add	sp, #16
 80009c2:	4770      	bx	lr
 80009c4:	58024400 	.word	0x58024400
 80009c8:	58020800 	.word	0x58020800
 80009cc:	58020c00 	.word	0x58020c00
 80009d0:	24000118 	.word	0x24000118
 80009d4:	52004000 	.word	0x52004000

080009d8 <LCD_FSMC_Write_Time_Set>:
 80009d8:	b084      	sub	sp, #16
 80009da:	b508      	push	{r3, lr}
 80009dc:	f10d 0c08 	add.w	ip, sp, #8
 80009e0:	e88c 000f 	stmia.w	ip, {r0, r1, r2, r3}
 80009e4:	9b09      	ldr	r3, [sp, #36]	; 0x24
 80009e6:	4661      	mov	r1, ip
 80009e8:	4806      	ldr	r0, [pc, #24]	; (8000a04 <LCD_FSMC_Write_Time_Set+0x2c>)
 80009ea:	9302      	str	r3, [sp, #8]
 80009ec:	9b0a      	ldr	r3, [sp, #40]	; 0x28
 80009ee:	6882      	ldr	r2, [r0, #8]
 80009f0:	9304      	str	r3, [sp, #16]
 80009f2:	6ac3      	ldr	r3, [r0, #44]	; 0x2c
 80009f4:	6840      	ldr	r0, [r0, #4]
 80009f6:	f002 fe35 	bl	8003664 <FMC_NORSRAM_Extended_Timing_Init>
 80009fa:	e8bd 4008 	ldmia.w	sp!, {r3, lr}
 80009fe:	b004      	add	sp, #16
 8000a00:	4770      	bx	lr
 8000a02:	bf00      	nop
 8000a04:	24000118 	.word	0x24000118

08000a08 <LCD_SetWindows>:
 8000a08:	b4f0      	push	{r4, r5, r6, r7}
 8000a0a:	4f15      	ldr	r7, [pc, #84]	; (8000a60 <LCD_SetWindows+0x58>)
 8000a0c:	0a06      	lsrs	r6, r0, #8
 8000a0e:	4c15      	ldr	r4, [pc, #84]	; (8000a64 <LCD_SetWindows+0x5c>)
 8000a10:	b2c0      	uxtb	r0, r0
 8000a12:	89bd      	ldrh	r5, [r7, #12]
 8000a14:	8025      	strh	r5, [r4, #0]
 8000a16:	8066      	strh	r6, [r4, #2]
 8000a18:	1c6e      	adds	r6, r5, #1
 8000a1a:	b2b6      	uxth	r6, r6
 8000a1c:	8026      	strh	r6, [r4, #0]
 8000a1e:	8060      	strh	r0, [r4, #2]
 8000a20:	1ca8      	adds	r0, r5, #2
 8000a22:	3503      	adds	r5, #3
 8000a24:	b280      	uxth	r0, r0
 8000a26:	b2ad      	uxth	r5, r5
 8000a28:	8020      	strh	r0, [r4, #0]
 8000a2a:	0a10      	lsrs	r0, r2, #8
 8000a2c:	b2d2      	uxtb	r2, r2
 8000a2e:	8060      	strh	r0, [r4, #2]
 8000a30:	0a08      	lsrs	r0, r1, #8
 8000a32:	8025      	strh	r5, [r4, #0]
 8000a34:	b2c9      	uxtb	r1, r1
 8000a36:	8062      	strh	r2, [r4, #2]
 8000a38:	89fa      	ldrh	r2, [r7, #14]
 8000a3a:	8022      	strh	r2, [r4, #0]
 8000a3c:	8060      	strh	r0, [r4, #2]
 8000a3e:	1c50      	adds	r0, r2, #1
 8000a40:	b280      	uxth	r0, r0
 8000a42:	8020      	strh	r0, [r4, #0]
 8000a44:	8061      	strh	r1, [r4, #2]
 8000a46:	1c91      	adds	r1, r2, #2
 8000a48:	3203      	adds	r2, #3
 8000a4a:	b289      	uxth	r1, r1
 8000a4c:	b292      	uxth	r2, r2
 8000a4e:	8021      	strh	r1, [r4, #0]
 8000a50:	0a19      	lsrs	r1, r3, #8
 8000a52:	b2db      	uxtb	r3, r3
 8000a54:	8061      	strh	r1, [r4, #2]
 8000a56:	8022      	strh	r2, [r4, #0]
 8000a58:	8063      	strh	r3, [r4, #2]
 8000a5a:	bcf0      	pop	{r4, r5, r6, r7}
 8000a5c:	f7ff bf36 	b.w	80008cc <LCD_WriteRAM_Prepare>
 8000a60:	24000108 	.word	0x24000108
 8000a64:	6c0007fe 	.word	0x6c0007fe

08000a68 <LCD_Clear>:
 8000a68:	b538      	push	{r3, r4, r5, lr}
 8000a6a:	4b0b      	ldr	r3, [pc, #44]	; (8000a98 <LCD_Clear+0x30>)
 8000a6c:	2100      	movs	r1, #0
 8000a6e:	4605      	mov	r5, r0
 8000a70:	881a      	ldrh	r2, [r3, #0]
 8000a72:	4608      	mov	r0, r1
 8000a74:	885b      	ldrh	r3, [r3, #2]
 8000a76:	fb03 f402 	mul.w	r4, r3, r2
 8000a7a:	3b01      	subs	r3, #1
 8000a7c:	3a01      	subs	r2, #1
 8000a7e:	b29b      	uxth	r3, r3
 8000a80:	b292      	uxth	r2, r2
 8000a82:	f7ff ffc1 	bl	8000a08 <LCD_SetWindows>
 8000a86:	2300      	movs	r3, #0
 8000a88:	4a04      	ldr	r2, [pc, #16]	; (8000a9c <LCD_Clear+0x34>)
 8000a8a:	42a3      	cmp	r3, r4
 8000a8c:	d100      	bne.n	8000a90 <LCD_Clear+0x28>
 8000a8e:	bd38      	pop	{r3, r4, r5, pc}
 8000a90:	8055      	strh	r5, [r2, #2]
 8000a92:	3301      	adds	r3, #1
 8000a94:	e7f9      	b.n	8000a8a <LCD_Clear+0x22>
 8000a96:	bf00      	nop
 8000a98:	24000108 	.word	0x24000108
 8000a9c:	6c0007fe 	.word	0x6c0007fe

08000aa0 <LCD_direction>:
 8000aa0:	4b21      	ldr	r3, [pc, #132]	; (8000b28 <LCD_direction+0x88>)
 8000aa2:	f44f 5228 	mov.w	r2, #10752	; 0x2a00
 8000aa6:	819a      	strh	r2, [r3, #12]
 8000aa8:	f44f 522c 	mov.w	r2, #11008	; 0x2b00
 8000aac:	81da      	strh	r2, [r3, #14]
 8000aae:	f44f 5230 	mov.w	r2, #11264	; 0x2c00
 8000ab2:	811a      	strh	r2, [r3, #8]
 8000ab4:	f44f 5238 	mov.w	r2, #11776	; 0x2e00
 8000ab8:	815a      	strh	r2, [r3, #10]
 8000aba:	2803      	cmp	r0, #3
 8000abc:	d80f      	bhi.n	8000ade <LCD_direction+0x3e>
 8000abe:	e8df f000 	tbb	[pc, r0]
 8000ac2:	0f02      	.short	0x0f02
 8000ac4:	271b      	.short	0x271b
 8000ac6:	f44f 72f0 	mov.w	r2, #480	; 0x1e0
 8000aca:	801a      	strh	r2, [r3, #0]
 8000acc:	f44f 7248 	mov.w	r2, #800	; 0x320
 8000ad0:	805a      	strh	r2, [r3, #2]
 8000ad2:	f44f 5258 	mov.w	r2, #13824	; 0x3600
 8000ad6:	4b15      	ldr	r3, [pc, #84]	; (8000b2c <LCD_direction+0x8c>)
 8000ad8:	801a      	strh	r2, [r3, #0]
 8000ada:	2200      	movs	r2, #0
 8000adc:	805a      	strh	r2, [r3, #2]
 8000ade:	4770      	bx	lr
 8000ae0:	f44f 7248 	mov.w	r2, #800	; 0x320
 8000ae4:	801a      	strh	r2, [r3, #0]
 8000ae6:	f44f 72f0 	mov.w	r2, #480	; 0x1e0
 8000aea:	805a      	strh	r2, [r3, #2]
 8000aec:	f44f 5258 	mov.w	r2, #13824	; 0x3600
 8000af0:	4b0e      	ldr	r3, [pc, #56]	; (8000b2c <LCD_direction+0x8c>)
 8000af2:	801a      	strh	r2, [r3, #0]
 8000af4:	2260      	movs	r2, #96	; 0x60
 8000af6:	e7f1      	b.n	8000adc <LCD_direction+0x3c>
 8000af8:	f44f 72f0 	mov.w	r2, #480	; 0x1e0
 8000afc:	801a      	strh	r2, [r3, #0]
 8000afe:	f44f 7248 	mov.w	r2, #800	; 0x320
 8000b02:	805a      	strh	r2, [r3, #2]
 8000b04:	f44f 5258 	mov.w	r2, #13824	; 0x3600
 8000b08:	4b08      	ldr	r3, [pc, #32]	; (8000b2c <LCD_direction+0x8c>)
 8000b0a:	801a      	strh	r2, [r3, #0]
 8000b0c:	22c0      	movs	r2, #192	; 0xc0
 8000b0e:	e7e5      	b.n	8000adc <LCD_direction+0x3c>
 8000b10:	f44f 7248 	mov.w	r2, #800	; 0x320
 8000b14:	801a      	strh	r2, [r3, #0]
 8000b16:	f44f 72f0 	mov.w	r2, #480	; 0x1e0
 8000b1a:	805a      	strh	r2, [r3, #2]
 8000b1c:	f44f 5258 	mov.w	r2, #13824	; 0x3600
 8000b20:	4b02      	ldr	r3, [pc, #8]	; (8000b2c <LCD_direction+0x8c>)
 8000b22:	801a      	strh	r2, [r3, #0]
 8000b24:	22a0      	movs	r2, #160	; 0xa0
 8000b26:	e7d9      	b.n	8000adc <LCD_direction+0x3c>
 8000b28:	24000108 	.word	0x24000108
 8000b2c:	6c0007fe 	.word	0x6c0007fe

08000b30 <LCD_Init>:
 8000b30:	e92d 4ff0 	stmdb	sp!, {r4, r5, r6, r7, r8, r9, sl, fp, lr}
 8000b34:	b0a1      	sub	sp, #132	; 0x84
 8000b36:	2552      	movs	r5, #82	; 0x52
 8000b38:	2401      	movs	r4, #1
 8000b3a:	f24b 7601 	movw	r6, #46849	; 0xb701
 8000b3e:	ab20      	add	r3, sp, #128	; 0x80
 8000b40:	f04f 0837 	mov.w	r8, #55	; 0x37
 8000b44:	f04f 0bb1 	mov.w	fp, #177	; 0xb1
 8000b48:	f04f 07d2 	mov.w	r7, #210	; 0xd2
 8000b4c:	f04f 094e 	mov.w	r9, #78	; 0x4e
 8000b50:	f04f 0a8c 	mov.w	sl, #140	; 0x8c
 8000b54:	e913 0007 	ldmdb	r3, {r0, r1, r2}
 8000b58:	ab19      	add	r3, sp, #100	; 0x64
 8000b5a:	e88d 0007 	stmia.w	sp, {r0, r1, r2}
 8000b5e:	cb0f      	ldmia	r3, {r0, r1, r2, r3}
 8000b60:	f7ff fed8 	bl	8000914 <LCD_GPIOInit>
 8000b64:	2032      	movs	r0, #50	; 0x32
 8000b66:	f7ff fea5 	bl	80008b4 <delay_ms>
 8000b6a:	4bb6      	ldr	r3, [pc, #728]	; (8000e44 <LCD_Init+0x314>)
 8000b6c:	f44f 4270 	mov.w	r2, #61440	; 0xf000
 8000b70:	2034      	movs	r0, #52	; 0x34
 8000b72:	f24b 0101 	movw	r1, #45057	; 0xb001
 8000b76:	f04f 0e7b 	mov.w	lr, #123	; 0x7b
 8000b7a:	801a      	strh	r2, [r3, #0]
 8000b7c:	2255      	movs	r2, #85	; 0x55
 8000b7e:	f04f 0c99 	mov.w	ip, #153	; 0x99
 8000b82:	805a      	strh	r2, [r3, #2]
 8000b84:	f24f 0201 	movw	r2, #61441	; 0xf001
 8000b88:	801a      	strh	r2, [r3, #0]
 8000b8a:	22aa      	movs	r2, #170	; 0xaa
 8000b8c:	805a      	strh	r2, [r3, #2]
 8000b8e:	f24f 0202 	movw	r2, #61442	; 0xf002
 8000b92:	801a      	strh	r2, [r3, #0]
 8000b94:	f24f 0203 	movw	r2, #61443	; 0xf003
 8000b98:	805d      	strh	r5, [r3, #2]
 8000b9a:	801a      	strh	r2, [r3, #0]
 8000b9c:	2208      	movs	r2, #8
 8000b9e:	805a      	strh	r2, [r3, #2]
 8000ba0:	f24f 0204 	movw	r2, #61444	; 0xf004
 8000ba4:	801a      	strh	r2, [r3, #0]
 8000ba6:	f44f 4236 	mov.w	r2, #46592	; 0xb600
 8000baa:	805c      	strh	r4, [r3, #2]
 8000bac:	801a      	strh	r2, [r3, #0]
 8000bae:	f24b 6201 	movw	r2, #46593	; 0xb601
 8000bb2:	8058      	strh	r0, [r3, #2]
 8000bb4:	801a      	strh	r2, [r3, #0]
 8000bb6:	f24b 6202 	movw	r2, #46594	; 0xb602
 8000bba:	8058      	strh	r0, [r3, #2]
 8000bbc:	801a      	strh	r2, [r3, #0]
 8000bbe:	f44f 4230 	mov.w	r2, #45056	; 0xb000
 8000bc2:	8058      	strh	r0, [r3, #2]
 8000bc4:	801a      	strh	r2, [r3, #0]
 8000bc6:	220d      	movs	r2, #13
 8000bc8:	805a      	strh	r2, [r3, #2]
 8000bca:	8019      	strh	r1, [r3, #0]
 8000bcc:	f24b 0102 	movw	r1, #45058	; 0xb002
 8000bd0:	805a      	strh	r2, [r3, #2]
 8000bd2:	8019      	strh	r1, [r3, #0]
 8000bd4:	f44f 4137 	mov.w	r1, #46848	; 0xb700
 8000bd8:	805a      	strh	r2, [r3, #2]
 8000bda:	8019      	strh	r1, [r3, #0]
 8000bdc:	2124      	movs	r1, #36	; 0x24
 8000bde:	8059      	strh	r1, [r3, #2]
 8000be0:	801e      	strh	r6, [r3, #0]
 8000be2:	f24b 7602 	movw	r6, #46850	; 0xb702
 8000be6:	8059      	strh	r1, [r3, #2]
 8000be8:	801e      	strh	r6, [r3, #0]
 8000bea:	f44f 4631 	mov.w	r6, #45312	; 0xb100
 8000bee:	8059      	strh	r1, [r3, #2]
 8000bf0:	801e      	strh	r6, [r3, #0]
 8000bf2:	f24b 1601 	movw	r6, #45313	; 0xb101
 8000bf6:	805a      	strh	r2, [r3, #2]
 8000bf8:	801e      	strh	r6, [r3, #0]
 8000bfa:	f24b 1602 	movw	r6, #45314	; 0xb102
 8000bfe:	805a      	strh	r2, [r3, #2]
 8000c00:	801e      	strh	r6, [r3, #0]
 8000c02:	f44f 4639 	mov.w	r6, #47360	; 0xb900
 8000c06:	805a      	strh	r2, [r3, #2]
 8000c08:	f44f 4238 	mov.w	r2, #47104	; 0xb800
 8000c0c:	801a      	strh	r2, [r3, #0]
 8000c0e:	f64b 0201 	movw	r2, #47105	; 0xb801
 8000c12:	8059      	strh	r1, [r3, #2]
 8000c14:	801a      	strh	r2, [r3, #0]
 8000c16:	f64b 0202 	movw	r2, #47106	; 0xb802
 8000c1a:	8059      	strh	r1, [r3, #2]
 8000c1c:	801a      	strh	r2, [r3, #0]
 8000c1e:	f44f 4232 	mov.w	r2, #45568	; 0xb200
 8000c22:	8059      	strh	r1, [r3, #2]
 8000c24:	801a      	strh	r2, [r3, #0]
 8000c26:	2200      	movs	r2, #0
 8000c28:	805a      	strh	r2, [r3, #2]
 8000c2a:	801e      	strh	r6, [r3, #0]
 8000c2c:	f64b 1601 	movw	r6, #47361	; 0xb901
 8000c30:	8059      	strh	r1, [r3, #2]
 8000c32:	801e      	strh	r6, [r3, #0]
 8000c34:	f64b 1602 	movw	r6, #47362	; 0xb902
 8000c38:	8059      	strh	r1, [r3, #2]
 8000c3a:	801e      	strh	r6, [r3, #0]
 8000c3c:	f24b 3601 	movw	r6, #45825	; 0xb301
 8000c40:	8059      	strh	r1, [r3, #2]
 8000c42:	f44f 4133 	mov.w	r1, #45824	; 0xb300
 8000c46:	8019      	strh	r1, [r3, #0]
 8000c48:	2105      	movs	r1, #5
 8000c4a:	8059      	strh	r1, [r3, #2]
 8000c4c:	801e      	strh	r6, [r3, #0]
 8000c4e:	f24b 3602 	movw	r6, #45826	; 0xb302
 8000c52:	8059      	strh	r1, [r3, #2]
 8000c54:	801e      	strh	r6, [r3, #0]
 8000c56:	260b      	movs	r6, #11
 8000c58:	8059      	strh	r1, [r3, #2]
 8000c5a:	f44f 413a 	mov.w	r1, #47616	; 0xba00
 8000c5e:	8019      	strh	r1, [r3, #0]
 8000c60:	f64b 2101 	movw	r1, #47617	; 0xba01
 8000c64:	8058      	strh	r0, [r3, #2]
 8000c66:	8019      	strh	r1, [r3, #0]
 8000c68:	f64b 2102 	movw	r1, #47618	; 0xba02
 8000c6c:	8058      	strh	r0, [r3, #2]
 8000c6e:	8019      	strh	r1, [r3, #0]
 8000c70:	f44f 4135 	mov.w	r1, #46336	; 0xb500
 8000c74:	8058      	strh	r0, [r3, #2]
 8000c76:	f64b 4002 	movw	r0, #48130	; 0xbc02
 8000c7a:	8019      	strh	r1, [r3, #0]
 8000c7c:	f24b 5101 	movw	r1, #46337	; 0xb501
 8000c80:	805e      	strh	r6, [r3, #2]
 8000c82:	8019      	strh	r1, [r3, #0]
 8000c84:	f24b 5102 	movw	r1, #46338	; 0xb502
 8000c88:	805e      	strh	r6, [r3, #2]
 8000c8a:	8019      	strh	r1, [r3, #0]
 8000c8c:	f44f 413c 	mov.w	r1, #48128	; 0xbc00
 8000c90:	805e      	strh	r6, [r3, #2]
 8000c92:	8019      	strh	r1, [r3, #0]
 8000c94:	f64b 4101 	movw	r1, #48129	; 0xbc01
 8000c98:	805a      	strh	r2, [r3, #2]
 8000c9a:	8019      	strh	r1, [r3, #0]
 8000c9c:	21a3      	movs	r1, #163	; 0xa3
 8000c9e:	8059      	strh	r1, [r3, #2]
 8000ca0:	8018      	strh	r0, [r3, #0]
 8000ca2:	f44f 403d 	mov.w	r0, #48384	; 0xbd00
 8000ca6:	805a      	strh	r2, [r3, #2]
 8000ca8:	8018      	strh	r0, [r3, #0]
 8000caa:	f64b 5001 	movw	r0, #48385	; 0xbd01
 8000cae:	805a      	strh	r2, [r3, #2]
 8000cb0:	8018      	strh	r0, [r3, #0]
 8000cb2:	f04f 0027 	mov.w	r0, #39	; 0x27
 8000cb6:	8059      	strh	r1, [r3, #2]
 8000cb8:	f64b 5102 	movw	r1, #48386	; 0xbd02
 8000cbc:	8019      	strh	r1, [r3, #0]
 8000cbe:	f44f 413e 	mov.w	r1, #48640	; 0xbe00
 8000cc2:	805a      	strh	r2, [r3, #2]
 8000cc4:	8019      	strh	r1, [r3, #0]
 8000cc6:	f64b 6101 	movw	r1, #48641	; 0xbe01
 8000cca:	805a      	strh	r2, [r3, #2]
 8000ccc:	8019      	strh	r1, [r3, #0]
 8000cce:	2163      	movs	r1, #99	; 0x63
 8000cd0:	8059      	strh	r1, [r3, #2]
 8000cd2:	f44f 4151 	mov.w	r1, #53504	; 0xd100
 8000cd6:	8019      	strh	r1, [r3, #0]
 8000cd8:	f24d 1101 	movw	r1, #53505	; 0xd101
 8000cdc:	805a      	strh	r2, [r3, #2]
 8000cde:	8019      	strh	r1, [r3, #0]
 8000ce0:	f24d 1102 	movw	r1, #53506	; 0xd102
 8000ce4:	f8a3 8002 	strh.w	r8, [r3, #2]
 8000ce8:	8019      	strh	r1, [r3, #0]
 8000cea:	f24d 1103 	movw	r1, #53507	; 0xd103
 8000cee:	805a      	strh	r2, [r3, #2]
 8000cf0:	8019      	strh	r1, [r3, #0]
 8000cf2:	f24d 1104 	movw	r1, #53508	; 0xd104
 8000cf6:	805d      	strh	r5, [r3, #2]
 8000cf8:	8019      	strh	r1, [r3, #0]
 8000cfa:	f24d 1105 	movw	r1, #53509	; 0xd105
 8000cfe:	805a      	strh	r2, [r3, #2]
 8000d00:	8019      	strh	r1, [r3, #0]
 8000d02:	f24d 1106 	movw	r1, #53510	; 0xd106
 8000d06:	f8a3 e002 	strh.w	lr, [r3, #2]
 8000d0a:	8019      	strh	r1, [r3, #0]
 8000d0c:	f24d 1107 	movw	r1, #53511	; 0xd107
 8000d10:	805a      	strh	r2, [r3, #2]
 8000d12:	8019      	strh	r1, [r3, #0]
 8000d14:	f24d 1108 	movw	r1, #53512	; 0xd108
 8000d18:	f8a3 c002 	strh.w	ip, [r3, #2]
 8000d1c:	8019      	strh	r1, [r3, #0]
 8000d1e:	f24d 1109 	movw	r1, #53513	; 0xd109
 8000d22:	805a      	strh	r2, [r3, #2]
 8000d24:	8019      	strh	r1, [r3, #0]
 8000d26:	f24d 110a 	movw	r1, #53514	; 0xd10a
 8000d2a:	f8a3 b002 	strh.w	fp, [r3, #2]
 8000d2e:	f44f 4b52 	mov.w	fp, #53760	; 0xd200
 8000d32:	8019      	strh	r1, [r3, #0]
 8000d34:	f24d 110b 	movw	r1, #53515	; 0xd10b
 8000d38:	805a      	strh	r2, [r3, #2]
 8000d3a:	8019      	strh	r1, [r3, #0]
 8000d3c:	f24d 110c 	movw	r1, #53516	; 0xd10c
 8000d40:	805f      	strh	r7, [r3, #2]
 8000d42:	8019      	strh	r1, [r3, #0]
 8000d44:	f24d 110d 	movw	r1, #53517	; 0xd10d
 8000d48:	805a      	strh	r2, [r3, #2]
 8000d4a:	8019      	strh	r1, [r3, #0]
 8000d4c:	f04f 01f6 	mov.w	r1, #246	; 0xf6
 8000d50:	8059      	strh	r1, [r3, #2]
 8000d52:	f24d 110e 	movw	r1, #53518	; 0xd10e
 8000d56:	8019      	strh	r1, [r3, #0]
 8000d58:	f24d 110f 	movw	r1, #53519	; 0xd10f
 8000d5c:	805c      	strh	r4, [r3, #2]
 8000d5e:	8019      	strh	r1, [r3, #0]
 8000d60:	f24d 1110 	movw	r1, #53520	; 0xd110
 8000d64:	8058      	strh	r0, [r3, #2]
 8000d66:	2002      	movs	r0, #2
 8000d68:	8019      	strh	r1, [r3, #0]
 8000d6a:	f24d 1111 	movw	r1, #53521	; 0xd111
 8000d6e:	805c      	strh	r4, [r3, #2]
 8000d70:	8019      	strh	r1, [r3, #0]
 8000d72:	f24d 1112 	movw	r1, #53522	; 0xd112
 8000d76:	f8a3 9002 	strh.w	r9, [r3, #2]
 8000d7a:	f04f 0948 	mov.w	r9, #72	; 0x48
 8000d7e:	8019      	strh	r1, [r3, #0]
 8000d80:	f24d 1113 	movw	r1, #53523	; 0xd113
 8000d84:	805c      	strh	r4, [r3, #2]
 8000d86:	8019      	strh	r1, [r3, #0]
 8000d88:	f24d 1114 	movw	r1, #53524	; 0xd114
 8000d8c:	f8a3 a002 	strh.w	sl, [r3, #2]
 8000d90:	f04f 0a4a 	mov.w	sl, #74	; 0x4a
 8000d94:	8019      	strh	r1, [r3, #0]
 8000d96:	f24d 1115 	movw	r1, #53525	; 0xd115
 8000d9a:	805c      	strh	r4, [r3, #2]
 8000d9c:	8019      	strh	r1, [r3, #0]
 8000d9e:	f04f 01be 	mov.w	r1, #190	; 0xbe
 8000da2:	8059      	strh	r1, [r3, #2]
 8000da4:	f24d 1116 	movw	r1, #53526	; 0xd116
 8000da8:	8019      	strh	r1, [r3, #0]
 8000daa:	f24d 1117 	movw	r1, #53527	; 0xd117
 8000dae:	8058      	strh	r0, [r3, #2]
 8000db0:	8019      	strh	r1, [r3, #0]
 8000db2:	f24d 1118 	movw	r1, #53528	; 0xd118
 8000db6:	805e      	strh	r6, [r3, #2]
 8000db8:	8019      	strh	r1, [r3, #0]
 8000dba:	f24d 1119 	movw	r1, #53529	; 0xd119
 8000dbe:	8058      	strh	r0, [r3, #2]
 8000dc0:	8019      	strh	r1, [r3, #0]
 8000dc2:	f24d 111a 	movw	r1, #53530	; 0xd11a
 8000dc6:	f8a3 9002 	strh.w	r9, [r3, #2]
 8000dca:	f04f 09bc 	mov.w	r9, #188	; 0xbc
 8000dce:	8019      	strh	r1, [r3, #0]
 8000dd0:	f24d 111b 	movw	r1, #53531	; 0xd11b
 8000dd4:	8058      	strh	r0, [r3, #2]
 8000dd6:	8019      	strh	r1, [r3, #0]
 8000dd8:	f24d 111c 	movw	r1, #53532	; 0xd11c
 8000ddc:	f8a3 a002 	strh.w	sl, [r3, #2]
 8000de0:	f04f 0ae1 	mov.w	sl, #225	; 0xe1
 8000de4:	8019      	strh	r1, [r3, #0]
 8000de6:	f24d 111d 	movw	r1, #53533	; 0xd11d
 8000dea:	8058      	strh	r0, [r3, #2]
 8000dec:	8019      	strh	r1, [r3, #0]
 8000dee:	f04f 017e 	mov.w	r1, #126	; 0x7e
 8000df2:	8059      	strh	r1, [r3, #2]
 8000df4:	f24d 111e 	movw	r1, #53534	; 0xd11e
 8000df8:	8019      	strh	r1, [r3, #0]
 8000dfa:	f24d 111f 	movw	r1, #53535	; 0xd11f
 8000dfe:	8058      	strh	r0, [r3, #2]
 8000e00:	8019      	strh	r1, [r3, #0]
 8000e02:	f24d 1120 	movw	r1, #53536	; 0xd120
 8000e06:	f8a3 9002 	strh.w	r9, [r3, #2]
 8000e0a:	f24d 1923 	movw	r9, #53539	; 0xd123
 8000e0e:	8019      	strh	r1, [r3, #0]
 8000e10:	f24d 1121 	movw	r1, #53537	; 0xd121
 8000e14:	8058      	strh	r0, [r3, #2]
 8000e16:	8019      	strh	r1, [r3, #0]
 8000e18:	f24d 1122 	movw	r1, #53538	; 0xd122
 8000e1c:	f8a3 a002 	strh.w	sl, [r3, #2]
 8000e20:	f04f 0a31 	mov.w	sl, #49	; 0x31
 8000e24:	8019      	strh	r1, [r3, #0]
 8000e26:	2103      	movs	r1, #3
 8000e28:	8059      	strh	r1, [r3, #2]
 8000e2a:	f8a3 9000 	strh.w	r9, [r3]
 8000e2e:	f04f 0910 	mov.w	r9, #16
 8000e32:	f8a3 9002 	strh.w	r9, [r3, #2]
 8000e36:	f24d 1924 	movw	r9, #53540	; 0xd124
 8000e3a:	f8a3 9000 	strh.w	r9, [r3]
 8000e3e:	f24d 1925 	movw	r9, #53541	; 0xd125
 8000e42:	e001      	b.n	8000e48 <LCD_Init+0x318>
 8000e44:	6c0007fe 	.word	0x6c0007fe
 8000e48:	8059      	strh	r1, [r3, #2]
 8000e4a:	f8a3 9000 	strh.w	r9, [r3]
 8000e4e:	f24d 1926 	movw	r9, #53542	; 0xd126
 8000e52:	f8a3 a002 	strh.w	sl, [r3, #2]
 8000e56:	f04f 0a73 	mov.w	sl, #115	; 0x73
 8000e5a:	f8a3 9000 	strh.w	r9, [r3]
 8000e5e:	f24d 1927 	movw	r9, #53543	; 0xd127
 8000e62:	8059      	strh	r1, [r3, #2]
 8000e64:	f8a3 9000 	strh.w	r9, [r3]
 8000e68:	f04f 095a 	mov.w	r9, #90	; 0x5a
 8000e6c:	f8a3 9002 	strh.w	r9, [r3, #2]
 8000e70:	f24d 1928 	movw	r9, #53544	; 0xd128
 8000e74:	f8a3 9000 	strh.w	r9, [r3]
 8000e78:	f24d 1929 	movw	r9, #53545	; 0xd129
 8000e7c:	8059      	strh	r1, [r3, #2]
 8000e7e:	f8a3 9000 	strh.w	r9, [r3]
 8000e82:	f24d 192a 	movw	r9, #53546	; 0xd12a
 8000e86:	f8a3 a002 	strh.w	sl, [r3, #2]
 8000e8a:	f04f 0a9f 	mov.w	sl, #159	; 0x9f
 8000e8e:	f8a3 9000 	strh.w	r9, [r3]
 8000e92:	f24d 192b 	movw	r9, #53547	; 0xd12b
 8000e96:	8059      	strh	r1, [r3, #2]
 8000e98:	f8a3 9000 	strh.w	r9, [r3]
 8000e9c:	f04f 0994 	mov.w	r9, #148	; 0x94
 8000ea0:	f8a3 9002 	strh.w	r9, [r3, #2]
 8000ea4:	f24d 192c 	movw	r9, #53548	; 0xd12c
 8000ea8:	f8a3 9000 	strh.w	r9, [r3]
 8000eac:	f24d 192d 	movw	r9, #53549	; 0xd12d
 8000eb0:	8059      	strh	r1, [r3, #2]
 8000eb2:	f8a3 9000 	strh.w	r9, [r3]
 8000eb6:	f24d 192e 	movw	r9, #53550	; 0xd12e
 8000eba:	f8a3 a002 	strh.w	sl, [r3, #2]
 8000ebe:	f04f 0ab9 	mov.w	sl, #185	; 0xb9
 8000ec2:	f8a3 9000 	strh.w	r9, [r3]
 8000ec6:	f24d 192f 	movw	r9, #53551	; 0xd12f
 8000eca:	8059      	strh	r1, [r3, #2]
 8000ecc:	f8a3 9000 	strh.w	r9, [r3]
 8000ed0:	f04f 09b3 	mov.w	r9, #179	; 0xb3
 8000ed4:	f8a3 9002 	strh.w	r9, [r3, #2]
 8000ed8:	f24d 1930 	movw	r9, #53552	; 0xd130
 8000edc:	f8a3 9000 	strh.w	r9, [r3]
 8000ee0:	f24d 1931 	movw	r9, #53553	; 0xd131
 8000ee4:	8059      	strh	r1, [r3, #2]
 8000ee6:	f8a3 9000 	strh.w	r9, [r3]
 8000eea:	f24d 1932 	movw	r9, #53554	; 0xd132
 8000eee:	f8a3 a002 	strh.w	sl, [r3, #2]
 8000ef2:	f8a3 9000 	strh.w	r9, [r3]
 8000ef6:	f24d 1933 	movw	r9, #53555	; 0xd133
 8000efa:	8059      	strh	r1, [r3, #2]
 8000efc:	f8a3 9000 	strh.w	r9, [r3]
 8000f00:	f04f 09c1 	mov.w	r9, #193	; 0xc1
 8000f04:	f8a3 9002 	strh.w	r9, [r3, #2]
 8000f08:	f8a3 b000 	strh.w	fp, [r3]
 8000f0c:	f24d 2b01 	movw	fp, #53761	; 0xd201
 8000f10:	805a      	strh	r2, [r3, #2]
 8000f12:	f8a3 b000 	strh.w	fp, [r3]
 8000f16:	f24d 2b02 	movw	fp, #53762	; 0xd202
 8000f1a:	f8a3 8002 	strh.w	r8, [r3, #2]
 8000f1e:	f8a3 b000 	strh.w	fp, [r3]
 8000f22:	f24d 2b03 	movw	fp, #53763	; 0xd203
 8000f26:	805a      	strh	r2, [r3, #2]
 8000f28:	f8a3 b000 	strh.w	fp, [r3]
 8000f2c:	f24d 2b04 	movw	fp, #53764	; 0xd204
 8000f30:	805d      	strh	r5, [r3, #2]
 8000f32:	f8a3 b000 	strh.w	fp, [r3]
 8000f36:	f24d 2b05 	movw	fp, #53765	; 0xd205
 8000f3a:	805a      	strh	r2, [r3, #2]
 8000f3c:	f8a3 b000 	strh.w	fp, [r3]
 8000f40:	f24d 2b06 	movw	fp, #53766	; 0xd206
 8000f44:	f8a3 e002 	strh.w	lr, [r3, #2]
 8000f48:	f8a3 b000 	strh.w	fp, [r3]
 8000f4c:	f24d 2b07 	movw	fp, #53767	; 0xd207
 8000f50:	805a      	strh	r2, [r3, #2]
 8000f52:	f8a3 b000 	strh.w	fp, [r3]
 8000f56:	f24d 2b08 	movw	fp, #53768	; 0xd208
 8000f5a:	f8a3 c002 	strh.w	ip, [r3, #2]
 8000f5e:	f8a3 b000 	strh.w	fp, [r3]
 8000f62:	f24d 2b09 	movw	fp, #53769	; 0xd209
 8000f66:	805a      	strh	r2, [r3, #2]
 8000f68:	f8a3 b000 	strh.w	fp, [r3]
 8000f6c:	f04f 0bb1 	mov.w	fp, #177	; 0xb1
 8000f70:	f8a3 b002 	strh.w	fp, [r3, #2]
 8000f74:	f24d 2b0a 	movw	fp, #53770	; 0xd20a
 8000f78:	f8a3 b000 	strh.w	fp, [r3]
 8000f7c:	f24d 2b0b 	movw	fp, #53771	; 0xd20b
 8000f80:	805a      	strh	r2, [r3, #2]
 8000f82:	f8a3 b000 	strh.w	fp, [r3]
 8000f86:	f24d 2b0c 	movw	fp, #53772	; 0xd20c
 8000f8a:	805f      	strh	r7, [r3, #2]
 8000f8c:	f8a3 b000 	strh.w	fp, [r3]
 8000f90:	f24d 2b0d 	movw	fp, #53773	; 0xd20d
 8000f94:	805a      	strh	r2, [r3, #2]
 8000f96:	f8a3 b000 	strh.w	fp, [r3]
 8000f9a:	f04f 0bf6 	mov.w	fp, #246	; 0xf6
 8000f9e:	f8a3 b002 	strh.w	fp, [r3, #2]
 8000fa2:	f24d 2b0e 	movw	fp, #53774	; 0xd20e
 8000fa6:	f8a3 b000 	strh.w	fp, [r3]
 8000faa:	f24d 2b0f 	movw	fp, #53775	; 0xd20f
 8000fae:	805c      	strh	r4, [r3, #2]
 8000fb0:	f8a3 b000 	strh.w	fp, [r3]
 8000fb4:	f04f 0b27 	mov.w	fp, #39	; 0x27
 8000fb8:	f8a3 b002 	strh.w	fp, [r3, #2]
 8000fbc:	f24d 2b10 	movw	fp, #53776	; 0xd210
 8000fc0:	f8a3 b000 	strh.w	fp, [r3]
 8000fc4:	f24d 2b11 	movw	fp, #53777	; 0xd211
 8000fc8:	805c      	strh	r4, [r3, #2]
 8000fca:	f8a3 b000 	strh.w	fp, [r3]
 8000fce:	f04f 0b4e 	mov.w	fp, #78	; 0x4e
 8000fd2:	f8a3 b002 	strh.w	fp, [r3, #2]
 8000fd6:	f24d 2b12 	movw	fp, #53778	; 0xd212
 8000fda:	f8a3 b000 	strh.w	fp, [r3]
 8000fde:	f24d 2b13 	movw	fp, #53779	; 0xd213
 8000fe2:	805c      	strh	r4, [r3, #2]
 8000fe4:	f8a3 b000 	strh.w	fp, [r3]
 8000fe8:	f04f 0b8c 	mov.w	fp, #140	; 0x8c
 8000fec:	f8a3 b002 	strh.w	fp, [r3, #2]
 8000ff0:	f24d 2b14 	movw	fp, #53780	; 0xd214
 8000ff4:	f8a3 b000 	strh.w	fp, [r3]
 8000ff8:	f24d 2b15 	movw	fp, #53781	; 0xd215
 8000ffc:	805c      	strh	r4, [r3, #2]
 8000ffe:	f8a3 b000 	strh.w	fp, [r3]
 8001002:	f04f 0bbe 	mov.w	fp, #190	; 0xbe
 8001006:	f8a3 b002 	strh.w	fp, [r3, #2]
 800100a:	f24d 2b16 	movw	fp, #53782	; 0xd216
 800100e:	f8a3 b000 	strh.w	fp, [r3]
 8001012:	f24d 2b17 	movw	fp, #53783	; 0xd217
 8001016:	8058      	strh	r0, [r3, #2]
 8001018:	f8a3 b000 	strh.w	fp, [r3]
 800101c:	f24d 2b18 	movw	fp, #53784	; 0xd218
 8001020:	805e      	strh	r6, [r3, #2]
 8001022:	f8a3 b000 	strh.w	fp, [r3]
 8001026:	f24d 2b19 	movw	fp, #53785	; 0xd219
 800102a:	8058      	strh	r0, [r3, #2]
 800102c:	f8a3 b000 	strh.w	fp, [r3]
 8001030:	f04f 0b48 	mov.w	fp, #72	; 0x48
 8001034:	f8a3 b002 	strh.w	fp, [r3, #2]
 8001038:	f24d 2b1a 	movw	fp, #53786	; 0xd21a
 800103c:	f8a3 b000 	strh.w	fp, [r3]
 8001040:	f24d 2b1b 	movw	fp, #53787	; 0xd21b
 8001044:	8058      	strh	r0, [r3, #2]
 8001046:	f8a3 b000 	strh.w	fp, [r3]
 800104a:	f04f 0b4a 	mov.w	fp, #74	; 0x4a
 800104e:	f8a3 b002 	strh.w	fp, [r3, #2]
 8001052:	f24d 2b1c 	movw	fp, #53788	; 0xd21c
 8001056:	f8a3 b000 	strh.w	fp, [r3]
 800105a:	f24d 2b1d 	movw	fp, #53789	; 0xd21d
 800105e:	8058      	strh	r0, [r3, #2]
 8001060:	f8a3 b000 	strh.w	fp, [r3]
 8001064:	f04f 0b7e 	mov.w	fp, #126	; 0x7e
 8001068:	f8a3 b002 	strh.w	fp, [r3, #2]
 800106c:	f24d 2b1e 	movw	fp, #53790	; 0xd21e
 8001070:	f8a3 b000 	strh.w	fp, [r3]
 8001074:	f24d 2b1f 	movw	fp, #53791	; 0xd21f
 8001078:	8058      	strh	r0, [r3, #2]
 800107a:	f8a3 b000 	strh.w	fp, [r3]
 800107e:	f04f 0bbc 	mov.w	fp, #188	; 0xbc
 8001082:	f8a3 b002 	strh.w	fp, [r3, #2]
 8001086:	f24d 2b20 	movw	fp, #53792	; 0xd220
 800108a:	f8a3 b000 	strh.w	fp, [r3]
 800108e:	f24d 2b21 	movw	fp, #53793	; 0xd221
 8001092:	8058      	strh	r0, [r3, #2]
 8001094:	f8a3 b000 	strh.w	fp, [r3]
 8001098:	f04f 0be1 	mov.w	fp, #225	; 0xe1
 800109c:	f8a3 b002 	strh.w	fp, [r3, #2]
 80010a0:	f24d 2b22 	movw	fp, #53794	; 0xd222
 80010a4:	f8a3 b000 	strh.w	fp, [r3]
 80010a8:	f24d 2b23 	movw	fp, #53795	; 0xd223
 80010ac:	8059      	strh	r1, [r3, #2]
 80010ae:	f8a3 b000 	strh.w	fp, [r3]
 80010b2:	f04f 0b10 	mov.w	fp, #16
 80010b6:	f8a3 b002 	strh.w	fp, [r3, #2]
 80010ba:	f24d 2b24 	movw	fp, #53796	; 0xd224
 80010be:	f8a3 b000 	strh.w	fp, [r3]
 80010c2:	f24d 2b25 	movw	fp, #53797	; 0xd225
 80010c6:	8059      	strh	r1, [r3, #2]
 80010c8:	f8a3 b000 	strh.w	fp, [r3]
 80010cc:	f04f 0b31 	mov.w	fp, #49	; 0x31
 80010d0:	f8a3 b002 	strh.w	fp, [r3, #2]
 80010d4:	f24d 2b26 	movw	fp, #53798	; 0xd226
 80010d8:	f8a3 b000 	strh.w	fp, [r3]
 80010dc:	f24d 2b27 	movw	fp, #53799	; 0xd227
 80010e0:	8059      	strh	r1, [r3, #2]
 80010e2:	f8a3 b000 	strh.w	fp, [r3]
 80010e6:	f04f 0b5a 	mov.w	fp, #90	; 0x5a
 80010ea:	f8a3 b002 	strh.w	fp, [r3, #2]
 80010ee:	f24d 2b28 	movw	fp, #53800	; 0xd228
 80010f2:	f8a3 b000 	strh.w	fp, [r3]
 80010f6:	f24d 2b29 	movw	fp, #53801	; 0xd229
 80010fa:	8059      	strh	r1, [r3, #2]
 80010fc:	f8a3 b000 	strh.w	fp, [r3]
 8001100:	f04f 0b73 	mov.w	fp, #115	; 0x73
 8001104:	f8a3 b002 	strh.w	fp, [r3, #2]
 8001108:	f24d 2b2a 	movw	fp, #53802	; 0xd22a
 800110c:	f8a3 b000 	strh.w	fp, [r3]
 8001110:	f24d 2b2b 	movw	fp, #53803	; 0xd22b
 8001114:	8059      	strh	r1, [r3, #2]
 8001116:	f8a3 b000 	strh.w	fp, [r3]
 800111a:	f04f 0b94 	mov.w	fp, #148	; 0x94
 800111e:	f8a3 b002 	strh.w	fp, [r3, #2]
 8001122:	f24d 2b2c 	movw	fp, #53804	; 0xd22c
 8001126:	f8a3 b000 	strh.w	fp, [r3]
 800112a:	f24d 2b2d 	movw	fp, #53805	; 0xd22d
 800112e:	8059      	strh	r1, [r3, #2]
 8001130:	f8a3 b000 	strh.w	fp, [r3]
 8001134:	f04f 0b9f 	mov.w	fp, #159	; 0x9f
 8001138:	f8a3 b002 	strh.w	fp, [r3, #2]
 800113c:	f24d 2b2e 	movw	fp, #53806	; 0xd22e
 8001140:	f8a3 b000 	strh.w	fp, [r3]
 8001144:	f24d 2b2f 	movw	fp, #53807	; 0xd22f
 8001148:	8059      	strh	r1, [r3, #2]
 800114a:	f8a3 b000 	strh.w	fp, [r3]
 800114e:	f04f 0bb3 	mov.w	fp, #179	; 0xb3
 8001152:	f8a3 b002 	strh.w	fp, [r3, #2]
 8001156:	f24d 2b30 	movw	fp, #53808	; 0xd230
 800115a:	f8a3 b000 	strh.w	fp, [r3]
 800115e:	f24d 2b31 	movw	fp, #53809	; 0xd231
 8001162:	8059      	strh	r1, [r3, #2]
 8001164:	f8a3 b000 	strh.w	fp, [r3]
 8001168:	f24d 2b32 	movw	fp, #53810	; 0xd232
 800116c:	f8a3 a002 	strh.w	sl, [r3, #2]
 8001170:	f8a3 b000 	strh.w	fp, [r3]
 8001174:	f24d 2b33 	movw	fp, #53811	; 0xd233
 8001178:	8059      	strh	r1, [r3, #2]
 800117a:	f8a3 b000 	strh.w	fp, [r3]
 800117e:	f44f 4b53 	mov.w	fp, #54016	; 0xd300
 8001182:	f8a3 9002 	strh.w	r9, [r3, #2]
 8001186:	f8a3 b000 	strh.w	fp, [r3]
 800118a:	f24d 3b01 	movw	fp, #54017	; 0xd301
 800118e:	805a      	strh	r2, [r3, #2]
 8001190:	f8a3 b000 	strh.w	fp, [r3]
 8001194:	f24d 3b02 	movw	fp, #54018	; 0xd302
 8001198:	f8a3 8002 	strh.w	r8, [r3, #2]
 800119c:	f8a3 b000 	strh.w	fp, [r3]
 80011a0:	f24d 3b03 	movw	fp, #54019	; 0xd303
 80011a4:	805a      	strh	r2, [r3, #2]
 80011a6:	f8a3 b000 	strh.w	fp, [r3]
 80011aa:	f24d 3b04 	movw	fp, #54020	; 0xd304
 80011ae:	805d      	strh	r5, [r3, #2]
 80011b0:	f8a3 b000 	strh.w	fp, [r3]
 80011b4:	f24d 3b05 	movw	fp, #54021	; 0xd305
 80011b8:	805a      	strh	r2, [r3, #2]
 80011ba:	f8a3 b000 	strh.w	fp, [r3]
 80011be:	f24d 3b06 	movw	fp, #54022	; 0xd306
 80011c2:	f8a3 e002 	strh.w	lr, [r3, #2]
 80011c6:	f8a3 b000 	strh.w	fp, [r3]
 80011ca:	f24d 3b07 	movw	fp, #54023	; 0xd307
 80011ce:	805a      	strh	r2, [r3, #2]
 80011d0:	f8a3 b000 	strh.w	fp, [r3]
 80011d4:	f24d 3b08 	movw	fp, #54024	; 0xd308
 80011d8:	f8a3 c002 	strh.w	ip, [r3, #2]
 80011dc:	f8a3 b000 	strh.w	fp, [r3]
 80011e0:	f24d 3b09 	movw	fp, #54025	; 0xd309
 80011e4:	805a      	strh	r2, [r3, #2]
 80011e6:	f8a3 b000 	strh.w	fp, [r3]
 80011ea:	f04f 0bb1 	mov.w	fp, #177	; 0xb1
 80011ee:	f8a3 b002 	strh.w	fp, [r3, #2]
 80011f2:	f24d 3b0a 	movw	fp, #54026	; 0xd30a
 80011f6:	f8a3 b000 	strh.w	fp, [r3]
 80011fa:	f24d 3b0b 	movw	fp, #54027	; 0xd30b
 80011fe:	805a      	strh	r2, [r3, #2]
 8001200:	f8a3 b000 	strh.w	fp, [r3]
 8001204:	f24d 3b0c 	movw	fp, #54028	; 0xd30c
 8001208:	805f      	strh	r7, [r3, #2]
 800120a:	f8a3 b000 	strh.w	fp, [r3]
 800120e:	f24d 3b0d 	movw	fp, #54029	; 0xd30d
 8001212:	805a      	strh	r2, [r3, #2]
 8001214:	f8a3 b000 	strh.w	fp, [r3]
 8001218:	f04f 0bf6 	mov.w	fp, #246	; 0xf6
 800121c:	f8a3 b002 	strh.w	fp, [r3, #2]
 8001220:	f24d 3b0e 	movw	fp, #54030	; 0xd30e
 8001224:	f8a3 b000 	strh.w	fp, [r3]
 8001228:	f24d 3b0f 	movw	fp, #54031	; 0xd30f
 800122c:	805c      	strh	r4, [r3, #2]
 800122e:	f8a3 b000 	strh.w	fp, [r3]
 8001232:	f04f 0b27 	mov.w	fp, #39	; 0x27
 8001236:	f8a3 b002 	strh.w	fp, [r3, #2]
 800123a:	f24d 3b10 	movw	fp, #54032	; 0xd310
 800123e:	f8a3 b000 	strh.w	fp, [r3]
 8001242:	f24d 3b11 	movw	fp, #54033	; 0xd311
 8001246:	805c      	strh	r4, [r3, #2]
 8001248:	f8a3 b000 	strh.w	fp, [r3]
 800124c:	f04f 0b4e 	mov.w	fp, #78	; 0x4e
 8001250:	f8a3 b002 	strh.w	fp, [r3, #2]
 8001254:	f24d 3b12 	movw	fp, #54034	; 0xd312
 8001258:	f8a3 b000 	strh.w	fp, [r3]
 800125c:	f24d 3b13 	movw	fp, #54035	; 0xd313
 8001260:	805c      	strh	r4, [r3, #2]
 8001262:	f8a3 b000 	strh.w	fp, [r3]
 8001266:	f04f 0b8c 	mov.w	fp, #140	; 0x8c
 800126a:	f8a3 b002 	strh.w	fp, [r3, #2]
 800126e:	f24d 3b14 	movw	fp, #54036	; 0xd314
 8001272:	f8a3 b000 	strh.w	fp, [r3]
 8001276:	f24d 3b15 	movw	fp, #54037	; 0xd315
 800127a:	805c      	strh	r4, [r3, #2]
 800127c:	f8a3 b000 	strh.w	fp, [r3]
 8001280:	f04f 0bbe 	mov.w	fp, #190	; 0xbe
 8001284:	f8a3 b002 	strh.w	fp, [r3, #2]
 8001288:	f24d 3b16 	movw	fp, #54038	; 0xd316
 800128c:	f8a3 b000 	strh.w	fp, [r3]
 8001290:	f24d 3b17 	movw	fp, #54039	; 0xd317
 8001294:	8058      	strh	r0, [r3, #2]
 8001296:	f8a3 b000 	strh.w	fp, [r3]
 800129a:	f24d 3b18 	movw	fp, #54040	; 0xd318
 800129e:	805e      	strh	r6, [r3, #2]
 80012a0:	f8a3 b000 	strh.w	fp, [r3]
 80012a4:	f24d 3b19 	movw	fp, #54041	; 0xd319
 80012a8:	8058      	strh	r0, [r3, #2]
 80012aa:	f8a3 b000 	strh.w	fp, [r3]
 80012ae:	f04f 0b48 	mov.w	fp, #72	; 0x48
 80012b2:	f8a3 b002 	strh.w	fp, [r3, #2]
 80012b6:	f24d 3b1a 	movw	fp, #54042	; 0xd31a
 80012ba:	f8a3 b000 	strh.w	fp, [r3]
 80012be:	f24d 3b1b 	movw	fp, #54043	; 0xd31b
 80012c2:	8058      	strh	r0, [r3, #2]
 80012c4:	f8a3 b000 	strh.w	fp, [r3]
 80012c8:	f04f 0b4a 	mov.w	fp, #74	; 0x4a
 80012cc:	f8a3 b002 	strh.w	fp, [r3, #2]
 80012d0:	f24d 3b1c 	movw	fp, #54044	; 0xd31c
 80012d4:	f8a3 b000 	strh.w	fp, [r3]
 80012d8:	f24d 3b1d 	movw	fp, #54045	; 0xd31d
 80012dc:	8058      	strh	r0, [r3, #2]
 80012de:	f8a3 b000 	strh.w	fp, [r3]
 80012e2:	f04f 0b7e 	mov.w	fp, #126	; 0x7e
 80012e6:	f8a3 b002 	strh.w	fp, [r3, #2]
 80012ea:	f24d 3b1e 	movw	fp, #54046	; 0xd31e
 80012ee:	f8a3 b000 	strh.w	fp, [r3]
 80012f2:	f24d 3b1f 	movw	fp, #54047	; 0xd31f
 80012f6:	8058      	strh	r0, [r3, #2]
 80012f8:	f8a3 b000 	strh.w	fp, [r3]
 80012fc:	f04f 0bbc 	mov.w	fp, #188	; 0xbc
 8001300:	f8a3 b002 	strh.w	fp, [r3, #2]
 8001304:	f24d 3b20 	movw	fp, #54048	; 0xd320
 8001308:	f8a3 b000 	strh.w	fp, [r3]
 800130c:	f24d 3b21 	movw	fp, #54049	; 0xd321
 8001310:	8058      	strh	r0, [r3, #2]
 8001312:	f8a3 b000 	strh.w	fp, [r3]
 8001316:	f04f 0be1 	mov.w	fp, #225	; 0xe1
 800131a:	f8a3 b002 	strh.w	fp, [r3, #2]
 800131e:	f24d 3b22 	movw	fp, #54050	; 0xd322
 8001322:	f8a3 b000 	strh.w	fp, [r3]
 8001326:	f24d 3b23 	movw	fp, #54051	; 0xd323
 800132a:	8059      	strh	r1, [r3, #2]
 800132c:	f8a3 b000 	strh.w	fp, [r3]
 8001330:	f04f 0b10 	mov.w	fp, #16
 8001334:	f8a3 b002 	strh.w	fp, [r3, #2]
 8001338:	f24d 3b24 	movw	fp, #54052	; 0xd324
 800133c:	f8a3 b000 	strh.w	fp, [r3]
 8001340:	f24d 3b25 	movw	fp, #54053	; 0xd325
 8001344:	8059      	strh	r1, [r3, #2]
 8001346:	f8a3 b000 	strh.w	fp, [r3]
 800134a:	f04f 0b31 	mov.w	fp, #49	; 0x31
 800134e:	f8a3 b002 	strh.w	fp, [r3, #2]
 8001352:	f24d 3b26 	movw	fp, #54054	; 0xd326
 8001356:	f8a3 b000 	strh.w	fp, [r3]
 800135a:	f24d 3b27 	movw	fp, #54055	; 0xd327
 800135e:	8059      	strh	r1, [r3, #2]
 8001360:	f8a3 b000 	strh.w	fp, [r3]
 8001364:	f04f 0b5a 	mov.w	fp, #90	; 0x5a
 8001368:	f8a3 b002 	strh.w	fp, [r3, #2]
 800136c:	f24d 3b28 	movw	fp, #54056	; 0xd328
 8001370:	f8a3 b000 	strh.w	fp, [r3]
 8001374:	f24d 3b29 	movw	fp, #54057	; 0xd329
 8001378:	8059      	strh	r1, [r3, #2]
 800137a:	f8a3 b000 	strh.w	fp, [r3]
 800137e:	f04f 0b73 	mov.w	fp, #115	; 0x73
 8001382:	f8a3 b002 	strh.w	fp, [r3, #2]
 8001386:	f24d 3b2a 	movw	fp, #54058	; 0xd32a
 800138a:	f8a3 b000 	strh.w	fp, [r3]
 800138e:	f24d 3b2b 	movw	fp, #54059	; 0xd32b
 8001392:	8059      	strh	r1, [r3, #2]
 8001394:	f8a3 b000 	strh.w	fp, [r3]
 8001398:	f04f 0b94 	mov.w	fp, #148	; 0x94
 800139c:	f8a3 b002 	strh.w	fp, [r3, #2]
 80013a0:	f24d 3b2c 	movw	fp, #54060	; 0xd32c
 80013a4:	f8a3 b000 	strh.w	fp, [r3]
 80013a8:	f24d 3b2d 	movw	fp, #54061	; 0xd32d
 80013ac:	8059      	strh	r1, [r3, #2]
 80013ae:	f8a3 b000 	strh.w	fp, [r3]
 80013b2:	f04f 0b9f 	mov.w	fp, #159	; 0x9f
 80013b6:	f8a3 b002 	strh.w	fp, [r3, #2]
 80013ba:	f24d 3b2e 	movw	fp, #54062	; 0xd32e
 80013be:	f8a3 b000 	strh.w	fp, [r3]
 80013c2:	f24d 3b2f 	movw	fp, #54063	; 0xd32f
 80013c6:	8059      	strh	r1, [r3, #2]
 80013c8:	f8a3 b000 	strh.w	fp, [r3]
 80013cc:	f04f 0bb3 	mov.w	fp, #179	; 0xb3
 80013d0:	f8a3 b002 	strh.w	fp, [r3, #2]
 80013d4:	f24d 3b30 	movw	fp, #54064	; 0xd330
 80013d8:	f8a3 b000 	strh.w	fp, [r3]
 80013dc:	f24d 3b31 	movw	fp, #54065	; 0xd331
 80013e0:	8059      	strh	r1, [r3, #2]
 80013e2:	f8a3 b000 	strh.w	fp, [r3]
 80013e6:	f24d 3b32 	movw	fp, #54066	; 0xd332
 80013ea:	f8a3 a002 	strh.w	sl, [r3, #2]
 80013ee:	f8a3 b000 	strh.w	fp, [r3]
 80013f2:	f24d 3b33 	movw	fp, #54067	; 0xd333
 80013f6:	8059      	strh	r1, [r3, #2]
 80013f8:	f8a3 b000 	strh.w	fp, [r3]
 80013fc:	f44f 4b54 	mov.w	fp, #54272	; 0xd400
 8001400:	f8a3 9002 	strh.w	r9, [r3, #2]
 8001404:	f8a3 b000 	strh.w	fp, [r3]
 8001408:	f24d 4b01 	movw	fp, #54273	; 0xd401
 800140c:	805a      	strh	r2, [r3, #2]
 800140e:	f8a3 b000 	strh.w	fp, [r3]
 8001412:	f24d 4b02 	movw	fp, #54274	; 0xd402
 8001416:	f8a3 8002 	strh.w	r8, [r3, #2]
 800141a:	f8a3 b000 	strh.w	fp, [r3]
 800141e:	f24d 4b03 	movw	fp, #54275	; 0xd403
 8001422:	805a      	strh	r2, [r3, #2]
 8001424:	f8a3 b000 	strh.w	fp, [r3]
 8001428:	f24d 4b04 	movw	fp, #54276	; 0xd404
 800142c:	805d      	strh	r5, [r3, #2]
 800142e:	f8a3 b000 	strh.w	fp, [r3]
 8001432:	f24d 4b05 	movw	fp, #54277	; 0xd405
 8001436:	805a      	strh	r2, [r3, #2]
 8001438:	f8a3 b000 	strh.w	fp, [r3]
 800143c:	f24d 4b06 	movw	fp, #54278	; 0xd406
 8001440:	f8a3 e002 	strh.w	lr, [r3, #2]
 8001444:	f8a3 b000 	strh.w	fp, [r3]
 8001448:	f24d 4b07 	movw	fp, #54279	; 0xd407
 800144c:	805a      	strh	r2, [r3, #2]
 800144e:	f8a3 b000 	strh.w	fp, [r3]
 8001452:	f24d 4b08 	movw	fp, #54280	; 0xd408
 8001456:	f8a3 c002 	strh.w	ip, [r3, #2]
 800145a:	f8a3 b000 	strh.w	fp, [r3]
 800145e:	f24d 4b09 	movw	fp, #54281	; 0xd409
 8001462:	805a      	strh	r2, [r3, #2]
 8001464:	f8a3 b000 	strh.w	fp, [r3]
 8001468:	f04f 0bb1 	mov.w	fp, #177	; 0xb1
 800146c:	f8a3 b002 	strh.w	fp, [r3, #2]
 8001470:	f24d 4b0a 	movw	fp, #54282	; 0xd40a
 8001474:	f8a3 b000 	strh.w	fp, [r3]
 8001478:	f24d 4b0b 	movw	fp, #54283	; 0xd40b
 800147c:	805a      	strh	r2, [r3, #2]
 800147e:	f8a3 b000 	strh.w	fp, [r3]
 8001482:	f24d 4b0c 	movw	fp, #54284	; 0xd40c
 8001486:	805f      	strh	r7, [r3, #2]
 8001488:	27b1      	movs	r7, #177	; 0xb1
 800148a:	f8a3 b000 	strh.w	fp, [r3]
 800148e:	f24d 4b0d 	movw	fp, #54285	; 0xd40d
 8001492:	805a      	strh	r2, [r3, #2]
 8001494:	f8a3 b000 	strh.w	fp, [r3]
 8001498:	f04f 0bf6 	mov.w	fp, #246	; 0xf6
 800149c:	f8a3 b002 	strh.w	fp, [r3, #2]
 80014a0:	f24d 4b0e 	movw	fp, #54286	; 0xd40e
 80014a4:	f8a3 b000 	strh.w	fp, [r3]
 80014a8:	f24d 4b0f 	movw	fp, #54287	; 0xd40f
 80014ac:	805c      	strh	r4, [r3, #2]
 80014ae:	f8a3 b000 	strh.w	fp, [r3]
 80014b2:	f04f 0b27 	mov.w	fp, #39	; 0x27
 80014b6:	f8a3 b002 	strh.w	fp, [r3, #2]
 80014ba:	f24d 4b10 	movw	fp, #54288	; 0xd410
 80014be:	f8a3 b000 	strh.w	fp, [r3]
 80014c2:	f24d 4b11 	movw	fp, #54289	; 0xd411
 80014c6:	805c      	strh	r4, [r3, #2]
 80014c8:	f8a3 b000 	strh.w	fp, [r3]
 80014cc:	f04f 0b4e 	mov.w	fp, #78	; 0x4e
 80014d0:	f8a3 b002 	strh.w	fp, [r3, #2]
 80014d4:	f24d 4b12 	movw	fp, #54290	; 0xd412
 80014d8:	f8a3 b000 	strh.w	fp, [r3]
 80014dc:	f24d 4b13 	movw	fp, #54291	; 0xd413
 80014e0:	805c      	strh	r4, [r3, #2]
 80014e2:	f8a3 b000 	strh.w	fp, [r3]
 80014e6:	f04f 0b8c 	mov.w	fp, #140	; 0x8c
 80014ea:	f8a3 b002 	strh.w	fp, [r3, #2]
 80014ee:	f24d 4b14 	movw	fp, #54292	; 0xd414
 80014f2:	f8a3 b000 	strh.w	fp, [r3]
 80014f6:	f24d 4b15 	movw	fp, #54293	; 0xd415
 80014fa:	805c      	strh	r4, [r3, #2]
 80014fc:	f8a3 b000 	strh.w	fp, [r3]
 8001500:	f04f 0bbe 	mov.w	fp, #190	; 0xbe
 8001504:	f8a3 b002 	strh.w	fp, [r3, #2]
 8001508:	f24d 4b16 	movw	fp, #54294	; 0xd416
 800150c:	f8a3 b000 	strh.w	fp, [r3]
 8001510:	f24d 4b17 	movw	fp, #54295	; 0xd417
 8001514:	8058      	strh	r0, [r3, #2]
 8001516:	f8a3 b000 	strh.w	fp, [r3]
 800151a:	f24d 4b18 	movw	fp, #54296	; 0xd418
 800151e:	805e      	strh	r6, [r3, #2]
 8001520:	f8a3 b000 	strh.w	fp, [r3]
 8001524:	f24d 4b19 	movw	fp, #54297	; 0xd419
 8001528:	8058      	strh	r0, [r3, #2]
 800152a:	f8a3 b000 	strh.w	fp, [r3]
 800152e:	f04f 0b48 	mov.w	fp, #72	; 0x48
 8001532:	f8a3 b002 	strh.w	fp, [r3, #2]
 8001536:	f24d 4b1a 	movw	fp, #54298	; 0xd41a
 800153a:	f8a3 b000 	strh.w	fp, [r3]
 800153e:	f24d 4b1b 	movw	fp, #54299	; 0xd41b
 8001542:	8058      	strh	r0, [r3, #2]
 8001544:	f8a3 b000 	strh.w	fp, [r3]
 8001548:	f04f 0b4a 	mov.w	fp, #74	; 0x4a
 800154c:	f8a3 b002 	strh.w	fp, [r3, #2]
 8001550:	f24d 4b1c 	movw	fp, #54300	; 0xd41c
 8001554:	f8a3 b000 	strh.w	fp, [r3]
 8001558:	f24d 4b1d 	movw	fp, #54301	; 0xd41d
 800155c:	8058      	strh	r0, [r3, #2]
 800155e:	f8a3 b000 	strh.w	fp, [r3]
 8001562:	f04f 0b7e 	mov.w	fp, #126	; 0x7e
 8001566:	f8a3 b002 	strh.w	fp, [r3, #2]
 800156a:	f24d 4b1e 	movw	fp, #54302	; 0xd41e
 800156e:	f8a3 b000 	strh.w	fp, [r3]
 8001572:	f24d 4b1f 	movw	fp, #54303	; 0xd41f
 8001576:	8058      	strh	r0, [r3, #2]
 8001578:	f8a3 b000 	strh.w	fp, [r3]
 800157c:	f04f 0bbc 	mov.w	fp, #188	; 0xbc
 8001580:	f8a3 b002 	strh.w	fp, [r3, #2]
 8001584:	f24d 4b20 	movw	fp, #54304	; 0xd420
 8001588:	f8a3 b000 	strh.w	fp, [r3]
 800158c:	f24d 4b21 	movw	fp, #54305	; 0xd421
 8001590:	8058      	strh	r0, [r3, #2]
 8001592:	f8a3 b000 	strh.w	fp, [r3]
 8001596:	f04f 0be1 	mov.w	fp, #225	; 0xe1
 800159a:	f8a3 b002 	strh.w	fp, [r3, #2]
 800159e:	f24d 4b22 	movw	fp, #54306	; 0xd422
 80015a2:	f8a3 b000 	strh.w	fp, [r3]
 80015a6:	f24d 4b23 	movw	fp, #54307	; 0xd423
 80015aa:	8059      	strh	r1, [r3, #2]
 80015ac:	f8a3 b000 	strh.w	fp, [r3]
 80015b0:	f04f 0b10 	mov.w	fp, #16
 80015b4:	f8a3 b002 	strh.w	fp, [r3, #2]
 80015b8:	f24d 4b24 	movw	fp, #54308	; 0xd424
 80015bc:	f8a3 b000 	strh.w	fp, [r3]
 80015c0:	f24d 4b25 	movw	fp, #54309	; 0xd425
 80015c4:	8059      	strh	r1, [r3, #2]
 80015c6:	f8a3 b000 	strh.w	fp, [r3]
 80015ca:	f04f 0b31 	mov.w	fp, #49	; 0x31
 80015ce:	f8a3 b002 	strh.w	fp, [r3, #2]
 80015d2:	f24d 4b26 	movw	fp, #54310	; 0xd426
 80015d6:	f8a3 b000 	strh.w	fp, [r3]
 80015da:	f24d 4b27 	movw	fp, #54311	; 0xd427
 80015de:	8059      	strh	r1, [r3, #2]
 80015e0:	f8a3 b000 	strh.w	fp, [r3]
 80015e4:	f04f 0b5a 	mov.w	fp, #90	; 0x5a
 80015e8:	f8a3 b002 	strh.w	fp, [r3, #2]
 80015ec:	f24d 4b28 	movw	fp, #54312	; 0xd428
 80015f0:	f8a3 b000 	strh.w	fp, [r3]
 80015f4:	f24d 4b29 	movw	fp, #54313	; 0xd429
 80015f8:	8059      	strh	r1, [r3, #2]
 80015fa:	f8a3 b000 	strh.w	fp, [r3]
 80015fe:	f04f 0b73 	mov.w	fp, #115	; 0x73
 8001602:	f8a3 b002 	strh.w	fp, [r3, #2]
 8001606:	f24d 4b2a 	movw	fp, #54314	; 0xd42a
 800160a:	f8a3 b000 	strh.w	fp, [r3]
 800160e:	f24d 4b2b 	movw	fp, #54315	; 0xd42b
 8001612:	8059      	strh	r1, [r3, #2]
 8001614:	f8a3 b000 	strh.w	fp, [r3]
 8001618:	f04f 0b94 	mov.w	fp, #148	; 0x94
 800161c:	f8a3 b002 	strh.w	fp, [r3, #2]
 8001620:	f24d 4b2c 	movw	fp, #54316	; 0xd42c
 8001624:	f8a3 b000 	strh.w	fp, [r3]
 8001628:	f24d 4b2d 	movw	fp, #54317	; 0xd42d
 800162c:	8059      	strh	r1, [r3, #2]
 800162e:	f8a3 b000 	strh.w	fp, [r3]
 8001632:	f04f 0b9f 	mov.w	fp, #159	; 0x9f
 8001636:	f8a3 b002 	strh.w	fp, [r3, #2]
 800163a:	f24d 4b2e 	movw	fp, #54318	; 0xd42e
 800163e:	f8a3 b000 	strh.w	fp, [r3]
 8001642:	f24d 4b2f 	movw	fp, #54319	; 0xd42f
 8001646:	8059      	strh	r1, [r3, #2]
 8001648:	f8a3 b000 	strh.w	fp, [r3]
 800164c:	f04f 0bb3 	mov.w	fp, #179	; 0xb3
 8001650:	f8a3 b002 	strh.w	fp, [r3, #2]
 8001654:	f24d 4b30 	movw	fp, #54320	; 0xd430
 8001658:	f8a3 b000 	strh.w	fp, [r3]
 800165c:	f24d 4b31 	movw	fp, #54321	; 0xd431
 8001660:	8059      	strh	r1, [r3, #2]
 8001662:	f8a3 b000 	strh.w	fp, [r3]
 8001666:	f44f 4b56 	mov.w	fp, #54784	; 0xd600
 800166a:	f8a3 a002 	strh.w	sl, [r3, #2]
 800166e:	f24d 4a32 	movw	sl, #54322	; 0xd432
 8001672:	f8a3 a000 	strh.w	sl, [r3]
 8001676:	f24d 4a33 	movw	sl, #54323	; 0xd433
 800167a:	8059      	strh	r1, [r3, #2]
 800167c:	f8a3 a000 	strh.w	sl, [r3]
 8001680:	f04f 0a31 	mov.w	sl, #49	; 0x31
 8001684:	f8a3 9002 	strh.w	r9, [r3, #2]
 8001688:	f44f 4955 	mov.w	r9, #54528	; 0xd500
 800168c:	f8a3 9000 	strh.w	r9, [r3]
 8001690:	f24d 5901 	movw	r9, #54529	; 0xd501
 8001694:	805a      	strh	r2, [r3, #2]
 8001696:	f8a3 9000 	strh.w	r9, [r3]
 800169a:	f04f 095a 	mov.w	r9, #90	; 0x5a
 800169e:	f8cd 8020 	str.w	r8, [sp, #32]
 80016a2:	f8a3 8002 	strh.w	r8, [r3, #2]
 80016a6:	f24d 5802 	movw	r8, #54530	; 0xd502
 80016aa:	f8a3 8000 	strh.w	r8, [r3]
 80016ae:	f24d 5803 	movw	r8, #54531	; 0xd503
 80016b2:	805a      	strh	r2, [r3, #2]
 80016b4:	f8a3 8000 	strh.w	r8, [r3]
 80016b8:	f04f 0873 	mov.w	r8, #115	; 0x73
 80016bc:	9507      	str	r5, [sp, #28]
 80016be:	805d      	strh	r5, [r3, #2]
 80016c0:	f24d 5504 	movw	r5, #54532	; 0xd504
 80016c4:	801d      	strh	r5, [r3, #0]
 80016c6:	f24d 5505 	movw	r5, #54533	; 0xd505
 80016ca:	805a      	strh	r2, [r3, #2]
 80016cc:	801d      	strh	r5, [r3, #0]
 80016ce:	f24d 5506 	movw	r5, #54534	; 0xd506
 80016d2:	f8a3 e002 	strh.w	lr, [r3, #2]
 80016d6:	801d      	strh	r5, [r3, #0]
 80016d8:	f24d 5507 	movw	r5, #54535	; 0xd507
 80016dc:	805a      	strh	r2, [r3, #2]
 80016de:	801d      	strh	r5, [r3, #0]
 80016e0:	f24d 5508 	movw	r5, #54536	; 0xd508
 80016e4:	f8a3 c002 	strh.w	ip, [r3, #2]
 80016e8:	801d      	strh	r5, [r3, #0]
 80016ea:	f24d 5509 	movw	r5, #54537	; 0xd509
 80016ee:	805a      	strh	r2, [r3, #2]
 80016f0:	801d      	strh	r5, [r3, #0]
 80016f2:	f24d 550a 	movw	r5, #54538	; 0xd50a
 80016f6:	805f      	strh	r7, [r3, #2]
 80016f8:	801d      	strh	r5, [r3, #0]
 80016fa:	f24d 550b 	movw	r5, #54539	; 0xd50b
 80016fe:	805a      	strh	r2, [r3, #2]
 8001700:	801d      	strh	r5, [r3, #0]
 8001702:	25d2      	movs	r5, #210	; 0xd2
 8001704:	9509      	str	r5, [sp, #36]	; 0x24
 8001706:	805d      	strh	r5, [r3, #2]
 8001708:	f24d 550c 	movw	r5, #54540	; 0xd50c
 800170c:	801d      	strh	r5, [r3, #0]
 800170e:	f24d 550d 	movw	r5, #54541	; 0xd50d
 8001712:	805a      	strh	r2, [r3, #2]
 8001714:	801d      	strh	r5, [r3, #0]
 8001716:	25f6      	movs	r5, #246	; 0xf6
 8001718:	950a      	str	r5, [sp, #40]	; 0x28
 800171a:	805d      	strh	r5, [r3, #2]
 800171c:	f24d 550e 	movw	r5, #54542	; 0xd50e
 8001720:	801d      	strh	r5, [r3, #0]
 8001722:	f24d 550f 	movw	r5, #54543	; 0xd50f
 8001726:	805c      	strh	r4, [r3, #2]
 8001728:	801d      	strh	r5, [r3, #0]
 800172a:	2527      	movs	r5, #39	; 0x27
 800172c:	950b      	str	r5, [sp, #44]	; 0x2c
 800172e:	805d      	strh	r5, [r3, #2]
 8001730:	f24d 5510 	movw	r5, #54544	; 0xd510
 8001734:	801d      	strh	r5, [r3, #0]
 8001736:	f24d 5511 	movw	r5, #54545	; 0xd511
 800173a:	805c      	strh	r4, [r3, #2]
 800173c:	801d      	strh	r5, [r3, #0]
 800173e:	254e      	movs	r5, #78	; 0x4e
 8001740:	950c      	str	r5, [sp, #48]	; 0x30
 8001742:	805d      	strh	r5, [r3, #2]
 8001744:	f24d 5512 	movw	r5, #54546	; 0xd512
 8001748:	801d      	strh	r5, [r3, #0]
 800174a:	f24d 5513 	movw	r5, #54547	; 0xd513
 800174e:	805c      	strh	r4, [r3, #2]
 8001750:	801d      	strh	r5, [r3, #0]
 8001752:	258c      	movs	r5, #140	; 0x8c
 8001754:	950d      	str	r5, [sp, #52]	; 0x34
 8001756:	805d      	strh	r5, [r3, #2]
 8001758:	f24d 5514 	movw	r5, #54548	; 0xd514
 800175c:	801d      	strh	r5, [r3, #0]
 800175e:	f24d 5515 	movw	r5, #54549	; 0xd515
 8001762:	805c      	strh	r4, [r3, #2]
 8001764:	801d      	strh	r5, [r3, #0]
 8001766:	25be      	movs	r5, #190	; 0xbe
 8001768:	950e      	str	r5, [sp, #56]	; 0x38
 800176a:	805d      	strh	r5, [r3, #2]
 800176c:	f24d 5516 	movw	r5, #54550	; 0xd516
 8001770:	801d      	strh	r5, [r3, #0]
 8001772:	f24d 5517 	movw	r5, #54551	; 0xd517
 8001776:	8058      	strh	r0, [r3, #2]
 8001778:	801d      	strh	r5, [r3, #0]
 800177a:	f24d 5518 	movw	r5, #54552	; 0xd518
 800177e:	805e      	strh	r6, [r3, #2]
 8001780:	801d      	strh	r5, [r3, #0]
 8001782:	f24d 5519 	movw	r5, #54553	; 0xd519
 8001786:	8058      	strh	r0, [r3, #2]
 8001788:	801d      	strh	r5, [r3, #0]
 800178a:	2548      	movs	r5, #72	; 0x48
 800178c:	950f      	str	r5, [sp, #60]	; 0x3c
 800178e:	805d      	strh	r5, [r3, #2]
 8001790:	f24d 551a 	movw	r5, #54554	; 0xd51a
 8001794:	801d      	strh	r5, [r3, #0]
 8001796:	f24d 551b 	movw	r5, #54555	; 0xd51b
 800179a:	8058      	strh	r0, [r3, #2]
 800179c:	801d      	strh	r5, [r3, #0]
 800179e:	254a      	movs	r5, #74	; 0x4a
 80017a0:	9510      	str	r5, [sp, #64]	; 0x40
 80017a2:	805d      	strh	r5, [r3, #2]
 80017a4:	f24d 551c 	movw	r5, #54556	; 0xd51c
 80017a8:	801d      	strh	r5, [r3, #0]
 80017aa:	f24d 551d 	movw	r5, #54557	; 0xd51d
 80017ae:	8058      	strh	r0, [r3, #2]
 80017b0:	801d      	strh	r5, [r3, #0]
 80017b2:	257e      	movs	r5, #126	; 0x7e
 80017b4:	9511      	str	r5, [sp, #68]	; 0x44
 80017b6:	805d      	strh	r5, [r3, #2]
 80017b8:	f24d 551e 	movw	r5, #54558	; 0xd51e
 80017bc:	801d      	strh	r5, [r3, #0]
 80017be:	f24d 551f 	movw	r5, #54559	; 0xd51f
 80017c2:	8058      	strh	r0, [r3, #2]
 80017c4:	801d      	strh	r5, [r3, #0]
 80017c6:	25bc      	movs	r5, #188	; 0xbc
 80017c8:	9512      	str	r5, [sp, #72]	; 0x48
 80017ca:	805d      	strh	r5, [r3, #2]
 80017cc:	f24d 5520 	movw	r5, #54560	; 0xd520
 80017d0:	801d      	strh	r5, [r3, #0]
 80017d2:	f24d 5521 	movw	r5, #54561	; 0xd521
 80017d6:	8058      	strh	r0, [r3, #2]
 80017d8:	801d      	strh	r5, [r3, #0]
 80017da:	25e1      	movs	r5, #225	; 0xe1
 80017dc:	9513      	str	r5, [sp, #76]	; 0x4c
 80017de:	805d      	strh	r5, [r3, #2]
 80017e0:	f24d 5522 	movw	r5, #54562	; 0xd522
 80017e4:	801d      	strh	r5, [r3, #0]
 80017e6:	f24d 5523 	movw	r5, #54563	; 0xd523
 80017ea:	8059      	strh	r1, [r3, #2]
 80017ec:	801d      	strh	r5, [r3, #0]
 80017ee:	2510      	movs	r5, #16
 80017f0:	9514      	str	r5, [sp, #80]	; 0x50
 80017f2:	805d      	strh	r5, [r3, #2]
 80017f4:	f24d 5524 	movw	r5, #54564	; 0xd524
 80017f8:	801d      	strh	r5, [r3, #0]
 80017fa:	f24d 5525 	movw	r5, #54565	; 0xd525
 80017fe:	8059      	strh	r1, [r3, #2]
 8001800:	801d      	strh	r5, [r3, #0]
 8001802:	f24d 5526 	movw	r5, #54566	; 0xd526
 8001806:	f8a3 a002 	strh.w	sl, [r3, #2]
 800180a:	801d      	strh	r5, [r3, #0]
 800180c:	f24d 5527 	movw	r5, #54567	; 0xd527
 8001810:	8059      	strh	r1, [r3, #2]
 8001812:	801d      	strh	r5, [r3, #0]
 8001814:	f24d 5528 	movw	r5, #54568	; 0xd528
 8001818:	f8a3 9002 	strh.w	r9, [r3, #2]
 800181c:	801d      	strh	r5, [r3, #0]
 800181e:	f24d 5529 	movw	r5, #54569	; 0xd529
 8001822:	8059      	strh	r1, [r3, #2]
 8001824:	801d      	strh	r5, [r3, #0]
 8001826:	f24d 552a 	movw	r5, #54570	; 0xd52a
 800182a:	f8a3 8002 	strh.w	r8, [r3, #2]
 800182e:	801d      	strh	r5, [r3, #0]
 8001830:	f24d 552b 	movw	r5, #54571	; 0xd52b
 8001834:	8059      	strh	r1, [r3, #2]
 8001836:	801d      	strh	r5, [r3, #0]
 8001838:	2594      	movs	r5, #148	; 0x94
 800183a:	9515      	str	r5, [sp, #84]	; 0x54
 800183c:	805d      	strh	r5, [r3, #2]
 800183e:	f24d 552c 	movw	r5, #54572	; 0xd52c
 8001842:	801d      	strh	r5, [r3, #0]
 8001844:	f24d 552d 	movw	r5, #54573	; 0xd52d
 8001848:	8059      	strh	r1, [r3, #2]
 800184a:	801d      	strh	r5, [r3, #0]
 800184c:	259f      	movs	r5, #159	; 0x9f
 800184e:	9516      	str	r5, [sp, #88]	; 0x58
 8001850:	805d      	strh	r5, [r3, #2]
 8001852:	f24d 552e 	movw	r5, #54574	; 0xd52e
 8001856:	801d      	strh	r5, [r3, #0]
 8001858:	f24d 552f 	movw	r5, #54575	; 0xd52f
 800185c:	8059      	strh	r1, [r3, #2]
 800185e:	801d      	strh	r5, [r3, #0]
 8001860:	25b3      	movs	r5, #179	; 0xb3
 8001862:	9517      	str	r5, [sp, #92]	; 0x5c
 8001864:	805d      	strh	r5, [r3, #2]
 8001866:	f24d 5530 	movw	r5, #54576	; 0xd530
 800186a:	801d      	strh	r5, [r3, #0]
 800186c:	f24d 5531 	movw	r5, #54577	; 0xd531
 8001870:	8059      	strh	r1, [r3, #2]
 8001872:	801d      	strh	r5, [r3, #0]
 8001874:	f04f 05b9 	mov.w	r5, #185	; 0xb9
 8001878:	805d      	strh	r5, [r3, #2]
 800187a:	f24d 5532 	movw	r5, #54578	; 0xd532
 800187e:	801d      	strh	r5, [r3, #0]
 8001880:	f24d 5533 	movw	r5, #54579	; 0xd533
 8001884:	8059      	strh	r1, [r3, #2]
 8001886:	801d      	strh	r5, [r3, #0]
 8001888:	f04f 05c1 	mov.w	r5, #193	; 0xc1
 800188c:	805d      	strh	r5, [r3, #2]
 800188e:	f8a3 b000 	strh.w	fp, [r3]
 8001892:	f24d 6b01 	movw	fp, #54785	; 0xd601
 8001896:	805a      	strh	r2, [r3, #2]
 8001898:	9d08      	ldr	r5, [sp, #32]
 800189a:	f8a3 b000 	strh.w	fp, [r3]
 800189e:	f24d 6b02 	movw	fp, #54786	; 0xd602
 80018a2:	805d      	strh	r5, [r3, #2]
 80018a4:	f8a3 b000 	strh.w	fp, [r3]
 80018a8:	f24d 6b03 	movw	fp, #54787	; 0xd603
 80018ac:	805a      	strh	r2, [r3, #2]
 80018ae:	f8a3 b000 	strh.w	fp, [r3]
 80018b2:	f24d 6b04 	movw	fp, #54788	; 0xd604
 80018b6:	9d07      	ldr	r5, [sp, #28]
 80018b8:	805d      	strh	r5, [r3, #2]
 80018ba:	f8a3 b000 	strh.w	fp, [r3]
 80018be:	f24d 6b05 	movw	fp, #54789	; 0xd605
 80018c2:	805a      	strh	r2, [r3, #2]
 80018c4:	f8a3 b000 	strh.w	fp, [r3]
 80018c8:	f24d 6b06 	movw	fp, #54790	; 0xd606
 80018cc:	f8a3 e002 	strh.w	lr, [r3, #2]
 80018d0:	f24d 6e2c 	movw	lr, #54828	; 0xd62c
 80018d4:	f8a3 b000 	strh.w	fp, [r3]
 80018d8:	f24d 6b07 	movw	fp, #54791	; 0xd607
 80018dc:	805a      	strh	r2, [r3, #2]
 80018de:	f8a3 b000 	strh.w	fp, [r3]
 80018e2:	f24d 6b08 	movw	fp, #54792	; 0xd608
 80018e6:	f8a3 c002 	strh.w	ip, [r3, #2]
 80018ea:	f24d 6c2e 	movw	ip, #54830	; 0xd62e
 80018ee:	f8a3 b000 	strh.w	fp, [r3]
 80018f2:	f24d 6b09 	movw	fp, #54793	; 0xd609
 80018f6:	805a      	strh	r2, [r3, #2]
 80018f8:	f8a3 b000 	strh.w	fp, [r3]
 80018fc:	f24d 6b0a 	movw	fp, #54794	; 0xd60a
 8001900:	805f      	strh	r7, [r3, #2]
 8001902:	f24d 6730 	movw	r7, #54832	; 0xd630
 8001906:	f8a3 b000 	strh.w	fp, [r3]
 800190a:	f24d 6b0b 	movw	fp, #54795	; 0xd60b
 800190e:	805a      	strh	r2, [r3, #2]
 8001910:	9d09      	ldr	r5, [sp, #36]	; 0x24
 8001912:	f8a3 b000 	strh.w	fp, [r3]
 8001916:	f24d 6b0c 	movw	fp, #54796	; 0xd60c
 800191a:	805d      	strh	r5, [r3, #2]
 800191c:	f8a3 b000 	strh.w	fp, [r3]
 8001920:	f24d 6b0d 	movw	fp, #54797	; 0xd60d
 8001924:	805a      	strh	r2, [r3, #2]
 8001926:	9d0a      	ldr	r5, [sp, #40]	; 0x28
 8001928:	f8a3 b000 	strh.w	fp, [r3]
 800192c:	f24d 6b0e 	movw	fp, #54798	; 0xd60e
 8001930:	805d      	strh	r5, [r3, #2]
 8001932:	f8a3 b000 	strh.w	fp, [r3]
 8001936:	f24d 6b0f 	movw	fp, #54799	; 0xd60f
 800193a:	805c      	strh	r4, [r3, #2]
 800193c:	9d0b      	ldr	r5, [sp, #44]	; 0x2c
 800193e:	f8a3 b000 	strh.w	fp, [r3]
 8001942:	f24d 6b10 	movw	fp, #54800	; 0xd610
 8001946:	805d      	strh	r5, [r3, #2]
 8001948:	f8a3 b000 	strh.w	fp, [r3]
 800194c:	f24d 6b11 	movw	fp, #54801	; 0xd611
 8001950:	805c      	strh	r4, [r3, #2]
 8001952:	f8a3 b000 	strh.w	fp, [r3]
 8001956:	f24d 6b12 	movw	fp, #54802	; 0xd612
 800195a:	9d0c      	ldr	r5, [sp, #48]	; 0x30
 800195c:	805d      	strh	r5, [r3, #2]
 800195e:	f8a3 b000 	strh.w	fp, [r3]
 8001962:	f24d 6b13 	movw	fp, #54803	; 0xd613
 8001966:	805c      	strh	r4, [r3, #2]
 8001968:	9d0d      	ldr	r5, [sp, #52]	; 0x34
 800196a:	f8a3 b000 	strh.w	fp, [r3]
 800196e:	f24d 6b14 	movw	fp, #54804	; 0xd614
 8001972:	805d      	strh	r5, [r3, #2]
 8001974:	f8a3 b000 	strh.w	fp, [r3]
 8001978:	f24d 6b15 	movw	fp, #54805	; 0xd615
 800197c:	805c      	strh	r4, [r3, #2]
 800197e:	9d0e      	ldr	r5, [sp, #56]	; 0x38
 8001980:	f8a3 b000 	strh.w	fp, [r3]
 8001984:	f24d 6b16 	movw	fp, #54806	; 0xd616
 8001988:	805d      	strh	r5, [r3, #2]
 800198a:	f8a3 b000 	strh.w	fp, [r3]
 800198e:	f24d 6b17 	movw	fp, #54807	; 0xd617
 8001992:	8058      	strh	r0, [r3, #2]
 8001994:	f8a3 b000 	strh.w	fp, [r3]
 8001998:	f24d 6b18 	movw	fp, #54808	; 0xd618
 800199c:	805e      	strh	r6, [r3, #2]
 800199e:	f24d 6632 	movw	r6, #54834	; 0xd632
 80019a2:	f8a3 b000 	strh.w	fp, [r3]
 80019a6:	f24d 6b19 	movw	fp, #54809	; 0xd619
 80019aa:	8058      	strh	r0, [r3, #2]
 80019ac:	9d0f      	ldr	r5, [sp, #60]	; 0x3c
 80019ae:	f8a3 b000 	strh.w	fp, [r3]
 80019b2:	f24d 6b1a 	movw	fp, #54810	; 0xd61a
 80019b6:	805d      	strh	r5, [r3, #2]
 80019b8:	f8a3 b000 	strh.w	fp, [r3]
 80019bc:	f24d 6b1b 	movw	fp, #54811	; 0xd61b
 80019c0:	8058      	strh	r0, [r3, #2]
 80019c2:	9d10      	ldr	r5, [sp, #64]	; 0x40
 80019c4:	f8a3 b000 	strh.w	fp, [r3]
 80019c8:	f24d 6b1c 	movw	fp, #54812	; 0xd61c
 80019cc:	805d      	strh	r5, [r3, #2]
 80019ce:	f8a3 b000 	strh.w	fp, [r3]
 80019d2:	f24d 6b1d 	movw	fp, #54813	; 0xd61d
 80019d6:	8058      	strh	r0, [r3, #2]
 80019d8:	9d11      	ldr	r5, [sp, #68]	; 0x44
 80019da:	f8a3 b000 	strh.w	fp, [r3]
 80019de:	f24d 6b1e 	movw	fp, #54814	; 0xd61e
 80019e2:	805d      	strh	r5, [r3, #2]
 80019e4:	f8a3 b000 	strh.w	fp, [r3]
 80019e8:	f24d 6b1f 	movw	fp, #54815	; 0xd61f
 80019ec:	8058      	strh	r0, [r3, #2]
 80019ee:	f8a3 b000 	strh.w	fp, [r3]
 80019f2:	f24d 6b20 	movw	fp, #54816	; 0xd620
 80019f6:	9d12      	ldr	r5, [sp, #72]	; 0x48
 80019f8:	805d      	strh	r5, [r3, #2]
 80019fa:	f8a3 b000 	strh.w	fp, [r3]
 80019fe:	f24d 6b21 	movw	fp, #54817	; 0xd621
 8001a02:	8058      	strh	r0, [r3, #2]
 8001a04:	9d13      	ldr	r5, [sp, #76]	; 0x4c
 8001a06:	f8a3 b000 	strh.w	fp, [r3]
 8001a0a:	f24d 6b22 	movw	fp, #54818	; 0xd622
 8001a0e:	805d      	strh	r5, [r3, #2]
 8001a10:	f8a3 b000 	strh.w	fp, [r3]
 8001a14:	f24d 6b23 	movw	fp, #54819	; 0xd623
 8001a18:	8059      	strh	r1, [r3, #2]
 8001a1a:	9d14      	ldr	r5, [sp, #80]	; 0x50
 8001a1c:	f8a3 b000 	strh.w	fp, [r3]
 8001a20:	f24d 6b24 	movw	fp, #54820	; 0xd624
 8001a24:	805d      	strh	r5, [r3, #2]
 8001a26:	f8a3 b000 	strh.w	fp, [r3]
 8001a2a:	f24d 6b25 	movw	fp, #54821	; 0xd625
 8001a2e:	8059      	strh	r1, [r3, #2]
 8001a30:	f8a3 b000 	strh.w	fp, [r3]
 8001a34:	f8a3 a002 	strh.w	sl, [r3, #2]
 8001a38:	f24d 6a26 	movw	sl, #54822	; 0xd626
 8001a3c:	9d15      	ldr	r5, [sp, #84]	; 0x54
 8001a3e:	f8a3 a000 	strh.w	sl, [r3]
 8001a42:	f24d 6a27 	movw	sl, #54823	; 0xd627
 8001a46:	8059      	strh	r1, [r3, #2]
 8001a48:	f8a3 a000 	strh.w	sl, [r3]
 8001a4c:	f8a3 9002 	strh.w	r9, [r3, #2]
 8001a50:	f24d 6928 	movw	r9, #54824	; 0xd628
 8001a54:	f8a3 9000 	strh.w	r9, [r3]
 8001a58:	f24d 6929 	movw	r9, #54825	; 0xd629
 8001a5c:	8059      	strh	r1, [r3, #2]
 8001a5e:	f8a3 9000 	strh.w	r9, [r3]
 8001a62:	f8a3 8002 	strh.w	r8, [r3, #2]
 8001a66:	f24d 682a 	movw	r8, #54826	; 0xd62a
 8001a6a:	f8a3 8000 	strh.w	r8, [r3]
 8001a6e:	f24d 682b 	movw	r8, #54827	; 0xd62b
 8001a72:	8059      	strh	r1, [r3, #2]
 8001a74:	f8a3 8000 	strh.w	r8, [r3]
 8001a78:	805d      	strh	r5, [r3, #2]
 8001a7a:	f8a3 e000 	strh.w	lr, [r3]
 8001a7e:	f24d 6e2d 	movw	lr, #54829	; 0xd62d
 8001a82:	8059      	strh	r1, [r3, #2]
 8001a84:	f8a3 e000 	strh.w	lr, [r3]
 8001a88:	9d16      	ldr	r5, [sp, #88]	; 0x58
 8001a8a:	805d      	strh	r5, [r3, #2]
 8001a8c:	f8a3 c000 	strh.w	ip, [r3]
 8001a90:	f24d 6c2f 	movw	ip, #54831	; 0xd62f
 8001a94:	9d17      	ldr	r5, [sp, #92]	; 0x5c
 8001a96:	8059      	strh	r1, [r3, #2]
 8001a98:	f8a3 c000 	strh.w	ip, [r3]
 8001a9c:	f04f 0caa 	mov.w	ip, #170	; 0xaa
 8001aa0:	805d      	strh	r5, [r3, #2]
 8001aa2:	f04f 05b9 	mov.w	r5, #185	; 0xb9
 8001aa6:	801f      	strh	r7, [r3, #0]
 8001aa8:	f24d 6731 	movw	r7, #54833	; 0xd631
 8001aac:	8059      	strh	r1, [r3, #2]
 8001aae:	801f      	strh	r7, [r3, #0]
 8001ab0:	f24b 0702 	movw	r7, #45058	; 0xb002
 8001ab4:	805d      	strh	r5, [r3, #2]
 8001ab6:	f24f 0501 	movw	r5, #61441	; 0xf001
 8001aba:	801e      	strh	r6, [r3, #0]
 8001abc:	f24f 0604 	movw	r6, #61444	; 0xf004
 8001ac0:	8059      	strh	r1, [r3, #2]
 8001ac2:	f24d 6133 	movw	r1, #54835	; 0xd633
 8001ac6:	8019      	strh	r1, [r3, #0]
 8001ac8:	f04f 01c1 	mov.w	r1, #193	; 0xc1
 8001acc:	8059      	strh	r1, [r3, #2]
 8001ace:	f44f 4170 	mov.w	r1, #61440	; 0xf000
 8001ad2:	8019      	strh	r1, [r3, #0]
 8001ad4:	2155      	movs	r1, #85	; 0x55
 8001ad6:	8059      	strh	r1, [r3, #2]
 8001ad8:	801d      	strh	r5, [r3, #0]
 8001ada:	f24f 0502 	movw	r5, #61442	; 0xf002
 8001ade:	f8a3 c002 	strh.w	ip, [r3, #2]
 8001ae2:	801d      	strh	r5, [r3, #0]
 8001ae4:	9d07      	ldr	r5, [sp, #28]
 8001ae6:	805d      	strh	r5, [r3, #2]
 8001ae8:	f24f 0503 	movw	r5, #61443	; 0xf003
 8001aec:	801d      	strh	r5, [r3, #0]
 8001aee:	2508      	movs	r5, #8
 8001af0:	805d      	strh	r5, [r3, #2]
 8001af2:	801e      	strh	r6, [r3, #0]
 8001af4:	f44f 4630 	mov.w	r6, #45056	; 0xb000
 8001af8:	805a      	strh	r2, [r3, #2]
 8001afa:	801e      	strh	r6, [r3, #0]
 8001afc:	f24b 0601 	movw	r6, #45057	; 0xb001
 8001b00:	805d      	strh	r5, [r3, #2]
 8001b02:	801e      	strh	r6, [r3, #0]
 8001b04:	2605      	movs	r6, #5
 8001b06:	805e      	strh	r6, [r3, #2]
 8001b08:	801f      	strh	r7, [r3, #0]
 8001b0a:	f24b 0703 	movw	r7, #45059	; 0xb003
 8001b0e:	8058      	strh	r0, [r3, #2]
 8001b10:	801f      	strh	r7, [r3, #0]
 8001b12:	f24b 0704 	movw	r7, #45060	; 0xb004
 8001b16:	805e      	strh	r6, [r3, #2]
 8001b18:	801f      	strh	r7, [r3, #0]
 8001b1a:	2701      	movs	r7, #1
 8001b1c:	8058      	strh	r0, [r3, #2]
 8001b1e:	f44f 4036 	mov.w	r0, #46592	; 0xb600
 8001b22:	8018      	strh	r0, [r3, #0]
 8001b24:	f44f 4035 	mov.w	r0, #46336	; 0xb500
 8001b28:	805d      	strh	r5, [r3, #2]
 8001b2a:	2500      	movs	r5, #0
 8001b2c:	8018      	strh	r0, [r3, #0]
 8001b2e:	2050      	movs	r0, #80	; 0x50
 8001b30:	8058      	strh	r0, [r3, #2]
 8001b32:	f44f 4037 	mov.w	r0, #46848	; 0xb700
 8001b36:	8018      	strh	r0, [r3, #0]
 8001b38:	f24b 7001 	movw	r0, #46849	; 0xb701
 8001b3c:	805a      	strh	r2, [r3, #2]
 8001b3e:	8018      	strh	r0, [r3, #0]
 8001b40:	f44f 4038 	mov.w	r0, #47104	; 0xb800
 8001b44:	805a      	strh	r2, [r3, #2]
 8001b46:	8018      	strh	r0, [r3, #0]
 8001b48:	f64b 0001 	movw	r0, #47105	; 0xb801
 8001b4c:	805c      	strh	r4, [r3, #2]
 8001b4e:	461c      	mov	r4, r3
 8001b50:	8018      	strh	r0, [r3, #0]
 8001b52:	f64b 0002 	movw	r0, #47106	; 0xb802
 8001b56:	805e      	strh	r6, [r3, #2]
 8001b58:	8018      	strh	r0, [r3, #0]
 8001b5a:	f64b 0003 	movw	r0, #47107	; 0xb803
 8001b5e:	805e      	strh	r6, [r3, #2]
 8001b60:	8018      	strh	r0, [r3, #0]
 8001b62:	f44f 403c 	mov.w	r0, #48128	; 0xbc00
 8001b66:	805e      	strh	r6, [r3, #2]
 8001b68:	8018      	strh	r0, [r3, #0]
 8001b6a:	f64b 4001 	movw	r0, #48129	; 0xbc01
 8001b6e:	805a      	strh	r2, [r3, #2]
 8001b70:	8018      	strh	r0, [r3, #0]
 8001b72:	f64b 4002 	movw	r0, #48130	; 0xbc02
 8001b76:	805a      	strh	r2, [r3, #2]
 8001b78:	8018      	strh	r0, [r3, #0]
 8001b7a:	2078      	movs	r0, #120	; 0x78
 8001b7c:	805a      	strh	r2, [r3, #2]
 8001b7e:	f44f 424c 	mov.w	r2, #52224	; 0xcc00
 8001b82:	801a      	strh	r2, [r3, #0]
 8001b84:	2303      	movs	r3, #3
 8001b86:	8063      	strh	r3, [r4, #2]
 8001b88:	f64c 4301 	movw	r3, #52225	; 0xcc01
 8001b8c:	8023      	strh	r3, [r4, #0]
 8001b8e:	f64c 4302 	movw	r3, #52226	; 0xcc02
 8001b92:	8065      	strh	r5, [r4, #2]
 8001b94:	8023      	strh	r3, [r4, #0]
 8001b96:	f44f 433d 	mov.w	r3, #48384	; 0xbd00
 8001b9a:	8065      	strh	r5, [r4, #2]
 8001b9c:	8023      	strh	r3, [r4, #0]
 8001b9e:	f64b 5301 	movw	r3, #48385	; 0xbd01
 8001ba2:	8067      	strh	r7, [r4, #2]
 8001ba4:	8023      	strh	r3, [r4, #0]
 8001ba6:	2384      	movs	r3, #132	; 0x84
 8001ba8:	8063      	strh	r3, [r4, #2]
 8001baa:	f64b 5302 	movw	r3, #48386	; 0xbd02
 8001bae:	8023      	strh	r3, [r4, #0]
 8001bb0:	2307      	movs	r3, #7
 8001bb2:	8063      	strh	r3, [r4, #2]
 8001bb4:	f64b 5303 	movw	r3, #48387	; 0xbd03
 8001bb8:	8023      	strh	r3, [r4, #0]
 8001bba:	2331      	movs	r3, #49	; 0x31
 8001bbc:	8063      	strh	r3, [r4, #2]
 8001bbe:	f64b 5304 	movw	r3, #48388	; 0xbd04
 8001bc2:	8023      	strh	r3, [r4, #0]
 8001bc4:	f44f 433a 	mov.w	r3, #47616	; 0xba00
 8001bc8:	8065      	strh	r5, [r4, #2]
 8001bca:	8023      	strh	r3, [r4, #0]
 8001bcc:	f44f 437f 	mov.w	r3, #65280	; 0xff00
 8001bd0:	8067      	strh	r7, [r4, #2]
 8001bd2:	8023      	strh	r3, [r4, #0]
 8001bd4:	f64f 7301 	movw	r3, #65281	; 0xff01
 8001bd8:	f8a4 c002 	strh.w	ip, [r4, #2]
 8001bdc:	8023      	strh	r3, [r4, #0]
 8001bde:	f64f 7302 	movw	r3, #65282	; 0xff02
 8001be2:	8061      	strh	r1, [r4, #2]
 8001be4:	8023      	strh	r3, [r4, #0]
 8001be6:	2325      	movs	r3, #37	; 0x25
 8001be8:	8063      	strh	r3, [r4, #2]
 8001bea:	f64f 7303 	movw	r3, #65283	; 0xff03
 8001bee:	8023      	strh	r3, [r4, #0]
 8001bf0:	f44f 5354 	mov.w	r3, #13568	; 0x3500
 8001bf4:	8067      	strh	r7, [r4, #2]
 8001bf6:	8023      	strh	r3, [r4, #0]
 8001bf8:	f44f 5358 	mov.w	r3, #13824	; 0x3600
 8001bfc:	8065      	strh	r5, [r4, #2]
 8001bfe:	8023      	strh	r3, [r4, #0]
 8001c00:	f44f 5368 	mov.w	r3, #14848	; 0x3a00
 8001c04:	8065      	strh	r5, [r4, #2]
 8001c06:	8023      	strh	r3, [r4, #0]
 8001c08:	f44f 5388 	mov.w	r3, #4352	; 0x1100
 8001c0c:	8061      	strh	r1, [r4, #2]
 8001c0e:	8023      	strh	r3, [r4, #0]
 8001c10:	f7fe fe50 	bl	80008b4 <delay_ms>
 8001c14:	f44f 5324 	mov.w	r3, #10496	; 0x2900
 8001c18:	8023      	strh	r3, [r4, #0]
 8001c1a:	f44f 5330 	mov.w	r3, #11264	; 0x2c00
 8001c1e:	8023      	strh	r3, [r4, #0]
 8001c20:	ab20      	add	r3, sp, #128	; 0x80
 8001c22:	4c12      	ldr	r4, [pc, #72]	; (8001c6c <LCD_Init+0x113c>)
 8001c24:	e9cd 6603 	strd	r6, r6, [sp, #12]
 8001c28:	e913 0007 	ldmdb	r3, {r0, r1, r2}
 8001c2c:	ab19      	add	r3, sp, #100	; 0x64
 8001c2e:	e88d 0007 	stmia.w	sp, {r0, r1, r2}
 8001c32:	cb0f      	ldmia	r3, {r0, r1, r2, r3}
 8001c34:	f7fe fed0 	bl	80009d8 <LCD_FSMC_Write_Time_Set>
 8001c38:	4628      	mov	r0, r5
 8001c3a:	f7fe ff31 	bl	8000aa0 <LCD_direction>
 8001c3e:	462a      	mov	r2, r5
 8001c40:	210a      	movs	r1, #10
 8001c42:	4620      	mov	r0, r4
 8001c44:	f000 fa0e 	bl	8002064 <HAL_GPIO_WritePin>
 8001c48:	2032      	movs	r0, #50	; 0x32
 8001c4a:	f7fe fe33 	bl	80008b4 <delay_ms>
 8001c4e:	463a      	mov	r2, r7
 8001c50:	210a      	movs	r1, #10
 8001c52:	4620      	mov	r0, r4
 8001c54:	f000 fa06 	bl	8002064 <HAL_GPIO_WritePin>
 8001c58:	2032      	movs	r0, #50	; 0x32
 8001c5a:	f7fe fe2b 	bl	80008b4 <delay_ms>
 8001c5e:	f64f 70ff 	movw	r0, #65535	; 0xffff
 8001c62:	b021      	add	sp, #132	; 0x84
 8001c64:	e8bd 4ff0 	ldmia.w	sp!, {r4, r5, r6, r7, r8, r9, sl, fp, lr}
 8001c68:	f7fe befe 	b.w	8000a68 <LCD_Clear>
 8001c6c:	58020800 	.word	0x58020800

08001c70 <HAL_InitTick>:
 8001c70:	b538      	push	{r3, r4, r5, lr}
 8001c72:	4b0f      	ldr	r3, [pc, #60]	; (8001cb0 <HAL_InitTick+0x40>)
 8001c74:	4605      	mov	r5, r0
 8001c76:	7818      	ldrb	r0, [r3, #0]
 8001c78:	b908      	cbnz	r0, 8001c7e <HAL_InitTick+0xe>
 8001c7a:	2001      	movs	r0, #1
 8001c7c:	bd38      	pop	{r3, r4, r5, pc}
 8001c7e:	f44f 737a 	mov.w	r3, #1000	; 0x3e8
 8001c82:	4a0c      	ldr	r2, [pc, #48]	; (8001cb4 <HAL_InitTick+0x44>)
 8001c84:	fbb3 f3f0 	udiv	r3, r3, r0
 8001c88:	6810      	ldr	r0, [r2, #0]
 8001c8a:	fbb0 f0f3 	udiv	r0, r0, r3
 8001c8e:	f000 f89f 	bl	8001dd0 <HAL_SYSTICK_Config>
 8001c92:	4604      	mov	r4, r0
 8001c94:	2800      	cmp	r0, #0
 8001c96:	d1f0      	bne.n	8001c7a <HAL_InitTick+0xa>
 8001c98:	2d0f      	cmp	r5, #15
 8001c9a:	d8ee      	bhi.n	8001c7a <HAL_InitTick+0xa>
 8001c9c:	4602      	mov	r2, r0
 8001c9e:	4629      	mov	r1, r5
 8001ca0:	f04f 30ff 	mov.w	r0, #4294967295
 8001ca4:	f000 f862 	bl	8001d6c <HAL_NVIC_SetPriority>
 8001ca8:	4b03      	ldr	r3, [pc, #12]	; (8001cb8 <HAL_InitTick+0x48>)
 8001caa:	4620      	mov	r0, r4
 8001cac:	601d      	str	r5, [r3, #0]
 8001cae:	e7e5      	b.n	8001c7c <HAL_InitTick+0xc>
 8001cb0:	24000008 	.word	0x24000008
 8001cb4:	24000000 	.word	0x24000000
 8001cb8:	2400000c 	.word	0x2400000c

08001cbc <HAL_Init>:
 8001cbc:	b510      	push	{r4, lr}
 8001cbe:	2003      	movs	r0, #3
 8001cc0:	f000 f842 	bl	8001d48 <HAL_NVIC_SetPriorityGrouping>
 8001cc4:	f000 fc8c 	bl	80025e0 <HAL_RCC_GetSysClockFreq>
 8001cc8:	490f      	ldr	r1, [pc, #60]	; (8001d08 <HAL_Init+0x4c>)
 8001cca:	4a10      	ldr	r2, [pc, #64]	; (8001d0c <HAL_Init+0x50>)
 8001ccc:	698b      	ldr	r3, [r1, #24]
 8001cce:	f3c3 2303 	ubfx	r3, r3, #8, #4
 8001cd2:	5cd3      	ldrb	r3, [r2, r3]
 8001cd4:	f003 031f 	and.w	r3, r3, #31
 8001cd8:	40d8      	lsrs	r0, r3
 8001cda:	698b      	ldr	r3, [r1, #24]
 8001cdc:	f003 030f 	and.w	r3, r3, #15
 8001ce0:	5cd3      	ldrb	r3, [r2, r3]
 8001ce2:	4a0b      	ldr	r2, [pc, #44]	; (8001d10 <HAL_Init+0x54>)
 8001ce4:	f003 031f 	and.w	r3, r3, #31
 8001ce8:	fa20 f303 	lsr.w	r3, r0, r3
 8001cec:	6013      	str	r3, [r2, #0]
 8001cee:	4b09      	ldr	r3, [pc, #36]	; (8001d14 <HAL_Init+0x58>)
 8001cf0:	6018      	str	r0, [r3, #0]
 8001cf2:	2000      	movs	r0, #0
 8001cf4:	f7ff ffbc 	bl	8001c70 <HAL_InitTick>
 8001cf8:	4604      	mov	r4, r0
 8001cfa:	b918      	cbnz	r0, 8001d04 <HAL_Init+0x48>
 8001cfc:	f7fe fd16 	bl	800072c <HAL_MspInit>
 8001d00:	4620      	mov	r0, r4
 8001d02:	bd10      	pop	{r4, pc}
 8001d04:	2401      	movs	r4, #1
 8001d06:	e7fb      	b.n	8001d00 <HAL_Init+0x44>
 8001d08:	58024400 	.word	0x58024400
 8001d0c:	08003710 	.word	0x08003710
 8001d10:	24000004 	.word	0x24000004
 8001d14:	24000000 	.word	0x24000000

08001d18 <HAL_IncTick>:
 8001d18:	4a03      	ldr	r2, [pc, #12]	; (8001d28 <HAL_IncTick+0x10>)
 8001d1a:	4b04      	ldr	r3, [pc, #16]	; (8001d2c <HAL_IncTick+0x14>)
 8001d1c:	6811      	ldr	r1, [r2, #0]
 8001d1e:	781b      	ldrb	r3, [r3, #0]
 8001d20:	440b      	add	r3, r1
 8001d22:	6013      	str	r3, [r2, #0]
 8001d24:	4770      	bx	lr
 8001d26:	bf00      	nop
 8001d28:	24000168 	.word	0x24000168
 8001d2c:	24000008 	.word	0x24000008

08001d30 <HAL_GetTick>:
 8001d30:	4b01      	ldr	r3, [pc, #4]	; (8001d38 <HAL_GetTick+0x8>)
 8001d32:	6818      	ldr	r0, [r3, #0]
 8001d34:	4770      	bx	lr
 8001d36:	bf00      	nop
 8001d38:	24000168 	.word	0x24000168

08001d3c <HAL_GetREVID>:
 8001d3c:	4b01      	ldr	r3, [pc, #4]	; (8001d44 <HAL_GetREVID+0x8>)
 8001d3e:	6818      	ldr	r0, [r3, #0]
 8001d40:	0c00      	lsrs	r0, r0, #16
 8001d42:	4770      	bx	lr
 8001d44:	5c001000 	.word	0x5c001000

08001d48 <HAL_NVIC_SetPriorityGrouping>:
 8001d48:	4a07      	ldr	r2, [pc, #28]	; (8001d68 <HAL_NVIC_SetPriorityGrouping+0x20>)
 8001d4a:	0200      	lsls	r0, r0, #8
 8001d4c:	68d3      	ldr	r3, [r2, #12]
 8001d4e:	f400 60e0 	and.w	r0, r0, #1792	; 0x700
 8001d52:	f423 63e0 	bic.w	r3, r3, #1792	; 0x700
 8001d56:	041b      	lsls	r3, r3, #16
 8001d58:	0c1b      	lsrs	r3, r3, #16
 8001d5a:	f043 63bf 	orr.w	r3, r3, #100139008	; 0x5f80000
 8001d5e:	f443 3300 	orr.w	r3, r3, #131072	; 0x20000
 8001d62:	4303      	orrs	r3, r0
 8001d64:	60d3      	str	r3, [r2, #12]
 8001d66:	4770      	bx	lr
 8001d68:	e000ed00 	.word	0xe000ed00

08001d6c <HAL_NVIC_SetPriority>:
 8001d6c:	4b16      	ldr	r3, [pc, #88]	; (8001dc8 <HAL_NVIC_SetPriority+0x5c>)
 8001d6e:	b570      	push	{r4, r5, r6, lr}
 8001d70:	68dc      	ldr	r4, [r3, #12]
 8001d72:	f04f 36ff 	mov.w	r6, #4294967295
 8001d76:	f3c4 2402 	ubfx	r4, r4, #8, #3
 8001d7a:	f1c4 0507 	rsb	r5, r4, #7
 8001d7e:	1d23      	adds	r3, r4, #4
 8001d80:	2d04      	cmp	r5, #4
 8001d82:	bf28      	it	cs
 8001d84:	2504      	movcs	r5, #4
 8001d86:	2b06      	cmp	r3, #6
 8001d88:	fa06 f305 	lsl.w	r3, r6, r5
 8001d8c:	bf8c      	ite	hi
 8001d8e:	3c03      	subhi	r4, #3
 8001d90:	2400      	movls	r4, #0
 8001d92:	2800      	cmp	r0, #0
 8001d94:	ea21 0303 	bic.w	r3, r1, r3
 8001d98:	fa03 f304 	lsl.w	r3, r3, r4
 8001d9c:	fa06 f404 	lsl.w	r4, r6, r4
 8001da0:	ea22 0404 	bic.w	r4, r2, r4
 8001da4:	ea43 0304 	orr.w	r3, r3, r4
 8001da8:	ea4f 1303 	mov.w	r3, r3, lsl #4
 8001dac:	b2db      	uxtb	r3, r3
 8001dae:	db06      	blt.n	8001dbe <HAL_NVIC_SetPriority+0x52>
 8001db0:	f100 4060 	add.w	r0, r0, #3758096384	; 0xe0000000
 8001db4:	f500 4061 	add.w	r0, r0, #57600	; 0xe100
 8001db8:	f880 3300 	strb.w	r3, [r0, #768]	; 0x300
 8001dbc:	bd70      	pop	{r4, r5, r6, pc}
 8001dbe:	f000 000f 	and.w	r0, r0, #15
 8001dc2:	4a02      	ldr	r2, [pc, #8]	; (8001dcc <HAL_NVIC_SetPriority+0x60>)
 8001dc4:	5413      	strb	r3, [r2, r0]
 8001dc6:	e7f9      	b.n	8001dbc <HAL_NVIC_SetPriority+0x50>
 8001dc8:	e000ed00 	.word	0xe000ed00
 8001dcc:	e000ed14 	.word	0xe000ed14

08001dd0 <HAL_SYSTICK_Config>:
 8001dd0:	3801      	subs	r0, #1
 8001dd2:	f1b0 7f80 	cmp.w	r0, #16777216	; 0x1000000
 8001dd6:	d20a      	bcs.n	8001dee <HAL_SYSTICK_Config+0x1e>
 8001dd8:	4b06      	ldr	r3, [pc, #24]	; (8001df4 <HAL_SYSTICK_Config+0x24>)
 8001dda:	21f0      	movs	r1, #240	; 0xf0
 8001ddc:	4a06      	ldr	r2, [pc, #24]	; (8001df8 <HAL_SYSTICK_Config+0x28>)
 8001dde:	6058      	str	r0, [r3, #4]
 8001de0:	2000      	movs	r0, #0
 8001de2:	f882 1023 	strb.w	r1, [r2, #35]	; 0x23
 8001de6:	2207      	movs	r2, #7
 8001de8:	6098      	str	r0, [r3, #8]
 8001dea:	601a      	str	r2, [r3, #0]
 8001dec:	4770      	bx	lr
 8001dee:	2001      	movs	r0, #1
 8001df0:	4770      	bx	lr
 8001df2:	bf00      	nop
 8001df4:	e000e010 	.word	0xe000e010
 8001df8:	e000ed00 	.word	0xe000ed00

08001dfc <HAL_MPU_Disable>:
 8001dfc:	f3bf 8f5f 	dmb	sy
 8001e00:	4a04      	ldr	r2, [pc, #16]	; (8001e14 <HAL_MPU_Disable+0x18>)
 8001e02:	6a53      	ldr	r3, [r2, #36]	; 0x24
 8001e04:	f423 3380 	bic.w	r3, r3, #65536	; 0x10000
 8001e08:	6253      	str	r3, [r2, #36]	; 0x24
 8001e0a:	2200      	movs	r2, #0
 8001e0c:	4b02      	ldr	r3, [pc, #8]	; (8001e18 <HAL_MPU_Disable+0x1c>)
 8001e0e:	605a      	str	r2, [r3, #4]
 8001e10:	4770      	bx	lr
 8001e12:	bf00      	nop
 8001e14:	e000ed00 	.word	0xe000ed00
 8001e18:	e000ed90 	.word	0xe000ed90

08001e1c <HAL_MPU_Enable>:
 8001e1c:	4a06      	ldr	r2, [pc, #24]	; (8001e38 <HAL_MPU_Enable+0x1c>)
 8001e1e:	f040 0001 	orr.w	r0, r0, #1
 8001e22:	4b06      	ldr	r3, [pc, #24]	; (8001e3c <HAL_MPU_Enable+0x20>)
 8001e24:	6058      	str	r0, [r3, #4]
 8001e26:	6a53      	ldr	r3, [r2, #36]	; 0x24
 8001e28:	f443 3380 	orr.w	r3, r3, #65536	; 0x10000
 8001e2c:	6253      	str	r3, [r2, #36]	; 0x24
 8001e2e:	f3bf 8f4f 	dsb	sy
 8001e32:	f3bf 8f6f 	isb	sy
 8001e36:	4770      	bx	lr
 8001e38:	e000ed00 	.word	0xe000ed00
 8001e3c:	e000ed90 	.word	0xe000ed90

08001e40 <HAL_MPU_ConfigRegion>:
 8001e40:	7843      	ldrb	r3, [r0, #1]
 8001e42:	4a12      	ldr	r2, [pc, #72]	; (8001e8c <HAL_MPU_ConfigRegion+0x4c>)
 8001e44:	b510      	push	{r4, lr}
 8001e46:	6093      	str	r3, [r2, #8]
 8001e48:	7801      	ldrb	r1, [r0, #0]
 8001e4a:	b1d9      	cbz	r1, 8001e84 <HAL_MPU_ConfigRegion+0x44>
 8001e4c:	6843      	ldr	r3, [r0, #4]
 8001e4e:	60d3      	str	r3, [r2, #12]
 8001e50:	7ac3      	ldrb	r3, [r0, #11]
 8001e52:	7b04      	ldrb	r4, [r0, #12]
 8001e54:	061b      	lsls	r3, r3, #24
 8001e56:	ea43 7304 	orr.w	r3, r3, r4, lsl #28
 8001e5a:	430b      	orrs	r3, r1
 8001e5c:	7a81      	ldrb	r1, [r0, #10]
 8001e5e:	ea43 43c1 	orr.w	r3, r3, r1, lsl #19
 8001e62:	7b41      	ldrb	r1, [r0, #13]
 8001e64:	ea43 4381 	orr.w	r3, r3, r1, lsl #18
 8001e68:	7b81      	ldrb	r1, [r0, #14]
 8001e6a:	ea43 4341 	orr.w	r3, r3, r1, lsl #17
 8001e6e:	7bc1      	ldrb	r1, [r0, #15]
 8001e70:	ea43 4301 	orr.w	r3, r3, r1, lsl #16
 8001e74:	7a41      	ldrb	r1, [r0, #9]
 8001e76:	ea43 2301 	orr.w	r3, r3, r1, lsl #8
 8001e7a:	7a01      	ldrb	r1, [r0, #8]
 8001e7c:	ea43 0341 	orr.w	r3, r3, r1, lsl #1
 8001e80:	6113      	str	r3, [r2, #16]
 8001e82:	bd10      	pop	{r4, pc}
 8001e84:	60d1      	str	r1, [r2, #12]
 8001e86:	6111      	str	r1, [r2, #16]
 8001e88:	e7fb      	b.n	8001e82 <HAL_MPU_ConfigRegion+0x42>
 8001e8a:	bf00      	nop
 8001e8c:	e000ed90 	.word	0xe000ed90

08001e90 <HAL_GPIO_Init>:
 8001e90:	e92d 4ff0 	stmdb	sp!, {r4, r5, r6, r7, r8, r9, sl, fp, lr}
 8001e94:	680b      	ldr	r3, [r1, #0]
 8001e96:	b085      	sub	sp, #20
 8001e98:	f8df 81c0 	ldr.w	r8, [pc, #448]	; 800205c <HAL_GPIO_Init+0x1cc>
 8001e9c:	f04f 49b0 	mov.w	r9, #1476395008	; 0x58000000
 8001ea0:	9301      	str	r3, [sp, #4]
 8001ea2:	2300      	movs	r3, #0
 8001ea4:	f8df c1b8 	ldr.w	ip, [pc, #440]	; 8002060 <HAL_GPIO_Init+0x1d0>
 8001ea8:	9a01      	ldr	r2, [sp, #4]
 8001eaa:	40da      	lsrs	r2, r3
 8001eac:	d102      	bne.n	8001eb4 <HAL_GPIO_Init+0x24>
 8001eae:	b005      	add	sp, #20
 8001eb0:	e8bd 8ff0 	ldmia.w	sp!, {r4, r5, r6, r7, r8, r9, sl, fp, pc}
 8001eb4:	2701      	movs	r7, #1
 8001eb6:	9a01      	ldr	r2, [sp, #4]
 8001eb8:	409f      	lsls	r7, r3
 8001eba:	ea17 0502 	ands.w	r5, r7, r2
 8001ebe:	f000 80b6 	beq.w	800202e <HAL_GPIO_Init+0x19e>
 8001ec2:	684a      	ldr	r2, [r1, #4]
 8001ec4:	ea4f 0e43 	mov.w	lr, r3, lsl #1
 8001ec8:	2403      	movs	r4, #3
 8001eca:	f022 0a10 	bic.w	sl, r2, #16
 8001ece:	fa04 f40e 	lsl.w	r4, r4, lr
 8001ed2:	f10a 36ff 	add.w	r6, sl, #4294967295
 8001ed6:	43e4      	mvns	r4, r4
 8001ed8:	2e01      	cmp	r6, #1
 8001eda:	d810      	bhi.n	8001efe <HAL_GPIO_Init+0x6e>
 8001edc:	6886      	ldr	r6, [r0, #8]
 8001ede:	ea06 0b04 	and.w	fp, r6, r4
 8001ee2:	68ce      	ldr	r6, [r1, #12]
 8001ee4:	fa06 f60e 	lsl.w	r6, r6, lr
 8001ee8:	ea46 060b 	orr.w	r6, r6, fp
 8001eec:	6086      	str	r6, [r0, #8]
 8001eee:	6846      	ldr	r6, [r0, #4]
 8001ef0:	ea26 0707 	bic.w	r7, r6, r7
 8001ef4:	f3c2 1600 	ubfx	r6, r2, #4, #1
 8001ef8:	409e      	lsls	r6, r3
 8001efa:	4337      	orrs	r7, r6
 8001efc:	6047      	str	r7, [r0, #4]
 8001efe:	68c7      	ldr	r7, [r0, #12]
 8001f00:	f1ba 0f02 	cmp.w	sl, #2
 8001f04:	688e      	ldr	r6, [r1, #8]
 8001f06:	ea07 0704 	and.w	r7, r7, r4
 8001f0a:	fa06 f60e 	lsl.w	r6, r6, lr
 8001f0e:	ea46 0607 	orr.w	r6, r6, r7
 8001f12:	60c6      	str	r6, [r0, #12]
 8001f14:	d114      	bne.n	8001f40 <HAL_GPIO_Init+0xb0>
 8001f16:	ea4f 0ad3 	mov.w	sl, r3, lsr #3
 8001f1a:	f003 0b07 	and.w	fp, r3, #7
 8001f1e:	270f      	movs	r7, #15
 8001f20:	eb00 0a8a 	add.w	sl, r0, sl, lsl #2
 8001f24:	ea4f 0b8b 	mov.w	fp, fp, lsl #2
 8001f28:	f8da 6020 	ldr.w	r6, [sl, #32]
 8001f2c:	fa07 f70b 	lsl.w	r7, r7, fp
 8001f30:	ea26 0707 	bic.w	r7, r6, r7
 8001f34:	690e      	ldr	r6, [r1, #16]
 8001f36:	fa06 f60b 	lsl.w	r6, r6, fp
 8001f3a:	433e      	orrs	r6, r7
 8001f3c:	f8ca 6020 	str.w	r6, [sl, #32]
 8001f40:	6806      	ldr	r6, [r0, #0]
 8001f42:	4034      	ands	r4, r6
 8001f44:	f002 0603 	and.w	r6, r2, #3
 8001f48:	fa06 fe0e 	lsl.w	lr, r6, lr
 8001f4c:	ea4e 0404 	orr.w	r4, lr, r4
 8001f50:	6004      	str	r4, [r0, #0]
 8001f52:	00d4      	lsls	r4, r2, #3
 8001f54:	d56b      	bpl.n	800202e <HAL_GPIO_Init+0x19e>
 8001f56:	f8d8 40f4 	ldr.w	r4, [r8, #244]	; 0xf4
 8001f5a:	f023 0603 	bic.w	r6, r3, #3
 8001f5e:	f003 0703 	and.w	r7, r3, #3
 8001f62:	f04f 0e0f 	mov.w	lr, #15
 8001f66:	f044 0402 	orr.w	r4, r4, #2
 8001f6a:	f106 46b0 	add.w	r6, r6, #1476395008	; 0x58000000
 8001f6e:	00bf      	lsls	r7, r7, #2
 8001f70:	f8c8 40f4 	str.w	r4, [r8, #244]	; 0xf4
 8001f74:	f506 6680 	add.w	r6, r6, #1024	; 0x400
 8001f78:	f8d8 40f4 	ldr.w	r4, [r8, #244]	; 0xf4
 8001f7c:	f004 0402 	and.w	r4, r4, #2
 8001f80:	9403      	str	r4, [sp, #12]
 8001f82:	9c03      	ldr	r4, [sp, #12]
 8001f84:	fa0e f407 	lsl.w	r4, lr, r7
 8001f88:	f8d6 a008 	ldr.w	sl, [r6, #8]
 8001f8c:	ea2a 0e04 	bic.w	lr, sl, r4
 8001f90:	4c31      	ldr	r4, [pc, #196]	; (8002058 <HAL_GPIO_Init+0x1c8>)
 8001f92:	42a0      	cmp	r0, r4
 8001f94:	d04d      	beq.n	8002032 <HAL_GPIO_Init+0x1a2>
 8001f96:	f504 6480 	add.w	r4, r4, #1024	; 0x400
 8001f9a:	42a0      	cmp	r0, r4
 8001f9c:	d04b      	beq.n	8002036 <HAL_GPIO_Init+0x1a6>
 8001f9e:	f504 6480 	add.w	r4, r4, #1024	; 0x400
 8001fa2:	42a0      	cmp	r0, r4
 8001fa4:	d049      	beq.n	800203a <HAL_GPIO_Init+0x1aa>
 8001fa6:	f504 6480 	add.w	r4, r4, #1024	; 0x400
 8001faa:	42a0      	cmp	r0, r4
 8001fac:	d047      	beq.n	800203e <HAL_GPIO_Init+0x1ae>
 8001fae:	f504 6480 	add.w	r4, r4, #1024	; 0x400
 8001fb2:	42a0      	cmp	r0, r4
 8001fb4:	d045      	beq.n	8002042 <HAL_GPIO_Init+0x1b2>
 8001fb6:	f504 6480 	add.w	r4, r4, #1024	; 0x400
 8001fba:	42a0      	cmp	r0, r4
 8001fbc:	d043      	beq.n	8002046 <HAL_GPIO_Init+0x1b6>
 8001fbe:	f504 6480 	add.w	r4, r4, #1024	; 0x400
 8001fc2:	42a0      	cmp	r0, r4
 8001fc4:	d041      	beq.n	800204a <HAL_GPIO_Init+0x1ba>
 8001fc6:	f504 6480 	add.w	r4, r4, #1024	; 0x400
 8001fca:	42a0      	cmp	r0, r4
 8001fcc:	d03f      	beq.n	800204e <HAL_GPIO_Init+0x1be>
 8001fce:	f504 6480 	add.w	r4, r4, #1024	; 0x400
 8001fd2:	42a0      	cmp	r0, r4
 8001fd4:	d03d      	beq.n	8002052 <HAL_GPIO_Init+0x1c2>
 8001fd6:	f504 6480 	add.w	r4, r4, #1024	; 0x400
 8001fda:	42a0      	cmp	r0, r4
 8001fdc:	bf14      	ite	ne
 8001fde:	240a      	movne	r4, #10
 8001fe0:	2409      	moveq	r4, #9
 8001fe2:	40bc      	lsls	r4, r7
 8001fe4:	03d7      	lsls	r7, r2, #15
 8001fe6:	ea44 040e 	orr.w	r4, r4, lr
 8001fea:	60b4      	str	r4, [r6, #8]
 8001fec:	ea6f 0605 	mvn.w	r6, r5
 8001ff0:	f8dc 4000 	ldr.w	r4, [ip]
 8001ff4:	bf54      	ite	pl
 8001ff6:	4034      	andpl	r4, r6
 8001ff8:	432c      	orrmi	r4, r5
 8001ffa:	0397      	lsls	r7, r2, #14
 8001ffc:	f8cc 4000 	str.w	r4, [ip]
 8002000:	f8dc 4004 	ldr.w	r4, [ip, #4]
 8002004:	bf54      	ite	pl
 8002006:	4034      	andpl	r4, r6
 8002008:	432c      	orrmi	r4, r5
 800200a:	02d7      	lsls	r7, r2, #11
 800200c:	f04f 47b0 	mov.w	r7, #1476395008	; 0x58000000
 8002010:	f8cc 4004 	str.w	r4, [ip, #4]
 8002014:	f8d9 4000 	ldr.w	r4, [r9]
 8002018:	bf54      	ite	pl
 800201a:	4034      	andpl	r4, r6
 800201c:	432c      	orrmi	r4, r5
 800201e:	0292      	lsls	r2, r2, #10
 8002020:	603c      	str	r4, [r7, #0]
 8002022:	687c      	ldr	r4, [r7, #4]
 8002024:	bf54      	ite	pl
 8002026:	4034      	andpl	r4, r6
 8002028:	432c      	orrmi	r4, r5
 800202a:	f8c9 4004 	str.w	r4, [r9, #4]
 800202e:	3301      	adds	r3, #1
 8002030:	e73a      	b.n	8001ea8 <HAL_GPIO_Init+0x18>
 8002032:	2400      	movs	r4, #0
 8002034:	e7d5      	b.n	8001fe2 <HAL_GPIO_Init+0x152>
 8002036:	2401      	movs	r4, #1
 8002038:	e7d3      	b.n	8001fe2 <HAL_GPIO_Init+0x152>
 800203a:	2402      	movs	r4, #2
 800203c:	e7d1      	b.n	8001fe2 <HAL_GPIO_Init+0x152>
 800203e:	2403      	movs	r4, #3
 8002040:	e7cf      	b.n	8001fe2 <HAL_GPIO_Init+0x152>
 8002042:	2404      	movs	r4, #4
 8002044:	e7cd      	b.n	8001fe2 <HAL_GPIO_Init+0x152>
 8002046:	2405      	movs	r4, #5
 8002048:	e7cb      	b.n	8001fe2 <HAL_GPIO_Init+0x152>
 800204a:	2406      	movs	r4, #6
 800204c:	e7c9      	b.n	8001fe2 <HAL_GPIO_Init+0x152>
 800204e:	2407      	movs	r4, #7
 8002050:	e7c7      	b.n	8001fe2 <HAL_GPIO_Init+0x152>
 8002052:	2408      	movs	r4, #8
 8002054:	e7c5      	b.n	8001fe2 <HAL_GPIO_Init+0x152>
 8002056:	bf00      	nop
 8002058:	58020000 	.word	0x58020000
 800205c:	58024400 	.word	0x58024400
 8002060:	58000080 	.word	0x58000080

08002064 <HAL_GPIO_WritePin>:
 8002064:	b10a      	cbz	r2, 800206a <HAL_GPIO_WritePin+0x6>
 8002066:	6181      	str	r1, [r0, #24]
 8002068:	4770      	bx	lr
 800206a:	0409      	lsls	r1, r1, #16
 800206c:	e7fb      	b.n	8002066 <HAL_GPIO_WritePin+0x2>
	...

08002070 <HAL_PWREx_ConfigSupply>:
 8002070:	b538      	push	{r3, r4, r5, lr}
 8002072:	4c10      	ldr	r4, [pc, #64]	; (80020b4 <HAL_PWREx_ConfigSupply+0x44>)
 8002074:	68e3      	ldr	r3, [r4, #12]
 8002076:	f013 0f04 	tst.w	r3, #4
 800207a:	68e3      	ldr	r3, [r4, #12]
 800207c:	d105      	bne.n	800208a <HAL_PWREx_ConfigSupply+0x1a>
 800207e:	f003 0307 	and.w	r3, r3, #7
 8002082:	1a18      	subs	r0, r3, r0
 8002084:	bf18      	it	ne
 8002086:	2001      	movne	r0, #1
 8002088:	bd38      	pop	{r3, r4, r5, pc}
 800208a:	f023 0307 	bic.w	r3, r3, #7
 800208e:	4318      	orrs	r0, r3
 8002090:	60e0      	str	r0, [r4, #12]
 8002092:	f7ff fe4d 	bl	8001d30 <HAL_GetTick>
 8002096:	4605      	mov	r5, r0
 8002098:	6863      	ldr	r3, [r4, #4]
 800209a:	049b      	lsls	r3, r3, #18
 800209c:	d501      	bpl.n	80020a2 <HAL_PWREx_ConfigSupply+0x32>
 800209e:	2000      	movs	r0, #0
 80020a0:	e7f2      	b.n	8002088 <HAL_PWREx_ConfigSupply+0x18>
 80020a2:	f7ff fe45 	bl	8001d30 <HAL_GetTick>
 80020a6:	1b40      	subs	r0, r0, r5
 80020a8:	f5b0 7f7a 	cmp.w	r0, #1000	; 0x3e8
 80020ac:	d9f4      	bls.n	8002098 <HAL_PWREx_ConfigSupply+0x28>
 80020ae:	2001      	movs	r0, #1
 80020b0:	e7ea      	b.n	8002088 <HAL_PWREx_ConfigSupply+0x18>
 80020b2:	bf00      	nop
 80020b4:	58024800 	.word	0x58024800

080020b8 <HAL_RCC_OscConfig>:
 80020b8:	b5f8      	push	{r3, r4, r5, r6, r7, lr}
 80020ba:	4604      	mov	r4, r0
 80020bc:	b908      	cbnz	r0, 80020c2 <HAL_RCC_OscConfig+0xa>
 80020be:	2001      	movs	r0, #1
 80020c0:	e08c      	b.n	80021dc <HAL_RCC_OscConfig+0x124>
 80020c2:	6803      	ldr	r3, [r0, #0]
 80020c4:	07d8      	lsls	r0, r3, #31
 80020c6:	d45e      	bmi.n	8002186 <HAL_RCC_OscConfig+0xce>
 80020c8:	6823      	ldr	r3, [r4, #0]
 80020ca:	0799      	lsls	r1, r3, #30
 80020cc:	f100 80ac 	bmi.w	8002228 <HAL_RCC_OscConfig+0x170>
 80020d0:	6823      	ldr	r3, [r4, #0]
 80020d2:	06da      	lsls	r2, r3, #27
 80020d4:	d527      	bpl.n	8002126 <HAL_RCC_OscConfig+0x6e>
 80020d6:	4ba8      	ldr	r3, [pc, #672]	; (8002378 <HAL_RCC_OscConfig+0x2c0>)
 80020d8:	691a      	ldr	r2, [r3, #16]
 80020da:	6a99      	ldr	r1, [r3, #40]	; 0x28
 80020dc:	f002 0238 	and.w	r2, r2, #56	; 0x38
 80020e0:	2a08      	cmp	r2, #8
 80020e2:	d007      	beq.n	80020f4 <HAL_RCC_OscConfig+0x3c>
 80020e4:	2a18      	cmp	r2, #24
 80020e6:	f040 810a 	bne.w	80022fe <HAL_RCC_OscConfig+0x246>
 80020ea:	f001 0203 	and.w	r2, r1, #3
 80020ee:	2a01      	cmp	r2, #1
 80020f0:	f040 8105 	bne.w	80022fe <HAL_RCC_OscConfig+0x246>
 80020f4:	681b      	ldr	r3, [r3, #0]
 80020f6:	05db      	lsls	r3, r3, #23
 80020f8:	d502      	bpl.n	8002100 <HAL_RCC_OscConfig+0x48>
 80020fa:	69e3      	ldr	r3, [r4, #28]
 80020fc:	2b80      	cmp	r3, #128	; 0x80
 80020fe:	d1de      	bne.n	80020be <HAL_RCC_OscConfig+0x6>
 8002100:	f7ff fe1c 	bl	8001d3c <HAL_GetREVID>
 8002104:	f241 0303 	movw	r3, #4099	; 0x1003
 8002108:	6a21      	ldr	r1, [r4, #32]
 800210a:	4298      	cmp	r0, r3
 800210c:	4b9a      	ldr	r3, [pc, #616]	; (8002378 <HAL_RCC_OscConfig+0x2c0>)
 800210e:	f200 80ef 	bhi.w	80022f0 <HAL_RCC_OscConfig+0x238>
 8002112:	685a      	ldr	r2, [r3, #4]
 8002114:	2920      	cmp	r1, #32
 8002116:	f022 42f8 	bic.w	r2, r2, #2080374784	; 0x7c000000
 800211a:	bf0c      	ite	eq
 800211c:	f042 4280 	orreq.w	r2, r2, #1073741824	; 0x40000000
 8002120:	ea42 6281 	orrne.w	r2, r2, r1, lsl #26
 8002124:	605a      	str	r2, [r3, #4]
 8002126:	6823      	ldr	r3, [r4, #0]
 8002128:	0719      	lsls	r1, r3, #28
 800212a:	f100 8129 	bmi.w	8002380 <HAL_RCC_OscConfig+0x2c8>
 800212e:	6823      	ldr	r3, [r4, #0]
 8002130:	069a      	lsls	r2, r3, #26
 8002132:	f100 814a 	bmi.w	80023ca <HAL_RCC_OscConfig+0x312>
 8002136:	6823      	ldr	r3, [r4, #0]
 8002138:	075d      	lsls	r5, r3, #29
 800213a:	d51e      	bpl.n	800217a <HAL_RCC_OscConfig+0xc2>
 800213c:	4d8f      	ldr	r5, [pc, #572]	; (800237c <HAL_RCC_OscConfig+0x2c4>)
 800213e:	682b      	ldr	r3, [r5, #0]
 8002140:	f443 7380 	orr.w	r3, r3, #256	; 0x100
 8002144:	602b      	str	r3, [r5, #0]
 8002146:	f7ff fdf3 	bl	8001d30 <HAL_GetTick>
 800214a:	4606      	mov	r6, r0
 800214c:	682b      	ldr	r3, [r5, #0]
 800214e:	05da      	lsls	r2, r3, #23
 8002150:	f140 8160 	bpl.w	8002414 <HAL_RCC_OscConfig+0x35c>
 8002154:	68a3      	ldr	r3, [r4, #8]
 8002156:	4d88      	ldr	r5, [pc, #544]	; (8002378 <HAL_RCC_OscConfig+0x2c0>)
 8002158:	2b01      	cmp	r3, #1
 800215a:	f040 8162 	bne.w	8002422 <HAL_RCC_OscConfig+0x36a>
 800215e:	6f2b      	ldr	r3, [r5, #112]	; 0x70
 8002160:	f043 0301 	orr.w	r3, r3, #1
 8002164:	672b      	str	r3, [r5, #112]	; 0x70
 8002166:	f241 3588 	movw	r5, #5000	; 0x1388
 800216a:	f7ff fde1 	bl	8001d30 <HAL_GetTick>
 800216e:	4e82      	ldr	r6, [pc, #520]	; (8002378 <HAL_RCC_OscConfig+0x2c0>)
 8002170:	4607      	mov	r7, r0
 8002172:	6f33      	ldr	r3, [r6, #112]	; 0x70
 8002174:	079b      	lsls	r3, r3, #30
 8002176:	f140 817a 	bpl.w	800246e <HAL_RCC_OscConfig+0x3b6>
 800217a:	6a60      	ldr	r0, [r4, #36]	; 0x24
 800217c:	2800      	cmp	r0, #0
 800217e:	f040 817d 	bne.w	800247c <HAL_RCC_OscConfig+0x3c4>
 8002182:	2000      	movs	r0, #0
 8002184:	e02a      	b.n	80021dc <HAL_RCC_OscConfig+0x124>
 8002186:	4b7c      	ldr	r3, [pc, #496]	; (8002378 <HAL_RCC_OscConfig+0x2c0>)
 8002188:	691a      	ldr	r2, [r3, #16]
 800218a:	6a99      	ldr	r1, [r3, #40]	; 0x28
 800218c:	f002 0238 	and.w	r2, r2, #56	; 0x38
 8002190:	2a10      	cmp	r2, #16
 8002192:	d005      	beq.n	80021a0 <HAL_RCC_OscConfig+0xe8>
 8002194:	2a18      	cmp	r2, #24
 8002196:	d10a      	bne.n	80021ae <HAL_RCC_OscConfig+0xf6>
 8002198:	f001 0203 	and.w	r2, r1, #3
 800219c:	2a02      	cmp	r2, #2
 800219e:	d106      	bne.n	80021ae <HAL_RCC_OscConfig+0xf6>
 80021a0:	681b      	ldr	r3, [r3, #0]
 80021a2:	039a      	lsls	r2, r3, #14
 80021a4:	d590      	bpl.n	80020c8 <HAL_RCC_OscConfig+0x10>
 80021a6:	6863      	ldr	r3, [r4, #4]
 80021a8:	2b00      	cmp	r3, #0
 80021aa:	d18d      	bne.n	80020c8 <HAL_RCC_OscConfig+0x10>
 80021ac:	e787      	b.n	80020be <HAL_RCC_OscConfig+0x6>
 80021ae:	6863      	ldr	r3, [r4, #4]
 80021b0:	4d71      	ldr	r5, [pc, #452]	; (8002378 <HAL_RCC_OscConfig+0x2c0>)
 80021b2:	f5b3 3f80 	cmp.w	r3, #65536	; 0x10000
 80021b6:	d112      	bne.n	80021de <HAL_RCC_OscConfig+0x126>
 80021b8:	682b      	ldr	r3, [r5, #0]
 80021ba:	f443 3380 	orr.w	r3, r3, #65536	; 0x10000
 80021be:	602b      	str	r3, [r5, #0]
 80021c0:	f7ff fdb6 	bl	8001d30 <HAL_GetTick>
 80021c4:	4d6c      	ldr	r5, [pc, #432]	; (8002378 <HAL_RCC_OscConfig+0x2c0>)
 80021c6:	4606      	mov	r6, r0
 80021c8:	682b      	ldr	r3, [r5, #0]
 80021ca:	039b      	lsls	r3, r3, #14
 80021cc:	f53f af7c 	bmi.w	80020c8 <HAL_RCC_OscConfig+0x10>
 80021d0:	f7ff fdae 	bl	8001d30 <HAL_GetTick>
 80021d4:	1b80      	subs	r0, r0, r6
 80021d6:	2864      	cmp	r0, #100	; 0x64
 80021d8:	d9f6      	bls.n	80021c8 <HAL_RCC_OscConfig+0x110>
 80021da:	2003      	movs	r0, #3
 80021dc:	bdf8      	pop	{r3, r4, r5, r6, r7, pc}
 80021de:	b9a3      	cbnz	r3, 800220a <HAL_RCC_OscConfig+0x152>
 80021e0:	682b      	ldr	r3, [r5, #0]
 80021e2:	f423 3380 	bic.w	r3, r3, #65536	; 0x10000
 80021e6:	602b      	str	r3, [r5, #0]
 80021e8:	682b      	ldr	r3, [r5, #0]
 80021ea:	f423 2380 	bic.w	r3, r3, #262144	; 0x40000
 80021ee:	602b      	str	r3, [r5, #0]
 80021f0:	f7ff fd9e 	bl	8001d30 <HAL_GetTick>
 80021f4:	4606      	mov	r6, r0
 80021f6:	682b      	ldr	r3, [r5, #0]
 80021f8:	039f      	lsls	r7, r3, #14
 80021fa:	f57f af65 	bpl.w	80020c8 <HAL_RCC_OscConfig+0x10>
 80021fe:	f7ff fd97 	bl	8001d30 <HAL_GetTick>
 8002202:	1b80      	subs	r0, r0, r6
 8002204:	2864      	cmp	r0, #100	; 0x64
 8002206:	d9f6      	bls.n	80021f6 <HAL_RCC_OscConfig+0x13e>
 8002208:	e7e7      	b.n	80021da <HAL_RCC_OscConfig+0x122>
 800220a:	f5b3 2fa0 	cmp.w	r3, #327680	; 0x50000
 800220e:	682b      	ldr	r3, [r5, #0]
 8002210:	d103      	bne.n	800221a <HAL_RCC_OscConfig+0x162>
 8002212:	f443 2380 	orr.w	r3, r3, #262144	; 0x40000
 8002216:	602b      	str	r3, [r5, #0]
 8002218:	e7ce      	b.n	80021b8 <HAL_RCC_OscConfig+0x100>
 800221a:	f423 3380 	bic.w	r3, r3, #65536	; 0x10000
 800221e:	602b      	str	r3, [r5, #0]
 8002220:	682b      	ldr	r3, [r5, #0]
 8002222:	f423 2380 	bic.w	r3, r3, #262144	; 0x40000
 8002226:	e7ca      	b.n	80021be <HAL_RCC_OscConfig+0x106>
 8002228:	4b53      	ldr	r3, [pc, #332]	; (8002378 <HAL_RCC_OscConfig+0x2c0>)
 800222a:	691a      	ldr	r2, [r3, #16]
 800222c:	6a99      	ldr	r1, [r3, #40]	; 0x28
 800222e:	f012 0238 	ands.w	r2, r2, #56	; 0x38
 8002232:	d003      	beq.n	800223c <HAL_RCC_OscConfig+0x184>
 8002234:	2a18      	cmp	r2, #24
 8002236:	d120      	bne.n	800227a <HAL_RCC_OscConfig+0x1c2>
 8002238:	078e      	lsls	r6, r1, #30
 800223a:	d11e      	bne.n	800227a <HAL_RCC_OscConfig+0x1c2>
 800223c:	681b      	ldr	r3, [r3, #0]
 800223e:	075d      	lsls	r5, r3, #29
 8002240:	d503      	bpl.n	800224a <HAL_RCC_OscConfig+0x192>
 8002242:	68e3      	ldr	r3, [r4, #12]
 8002244:	2b00      	cmp	r3, #0
 8002246:	f43f af3a 	beq.w	80020be <HAL_RCC_OscConfig+0x6>
 800224a:	f7ff fd77 	bl	8001d3c <HAL_GetREVID>
 800224e:	f241 0303 	movw	r3, #4099	; 0x1003
 8002252:	6921      	ldr	r1, [r4, #16]
 8002254:	4298      	cmp	r0, r3
 8002256:	4b48      	ldr	r3, [pc, #288]	; (8002378 <HAL_RCC_OscConfig+0x2c0>)
 8002258:	685a      	ldr	r2, [r3, #4]
 800225a:	d809      	bhi.n	8002270 <HAL_RCC_OscConfig+0x1b8>
 800225c:	f422 327c 	bic.w	r2, r2, #258048	; 0x3f000
 8002260:	2940      	cmp	r1, #64	; 0x40
 8002262:	bf0c      	ite	eq
 8002264:	f442 3200 	orreq.w	r2, r2, #131072	; 0x20000
 8002268:	ea42 3201 	orrne.w	r2, r2, r1, lsl #12
 800226c:	605a      	str	r2, [r3, #4]
 800226e:	e72f      	b.n	80020d0 <HAL_RCC_OscConfig+0x18>
 8002270:	f022 42fe 	bic.w	r2, r2, #2130706432	; 0x7f000000
 8002274:	ea42 6201 	orr.w	r2, r2, r1, lsl #24
 8002278:	e7f8      	b.n	800226c <HAL_RCC_OscConfig+0x1b4>
 800227a:	4d3f      	ldr	r5, [pc, #252]	; (8002378 <HAL_RCC_OscConfig+0x2c0>)
 800227c:	68e2      	ldr	r2, [r4, #12]
 800227e:	682b      	ldr	r3, [r5, #0]
 8002280:	b332      	cbz	r2, 80022d0 <HAL_RCC_OscConfig+0x218>
 8002282:	f023 0319 	bic.w	r3, r3, #25
 8002286:	4313      	orrs	r3, r2
 8002288:	602b      	str	r3, [r5, #0]
 800228a:	f7ff fd51 	bl	8001d30 <HAL_GetTick>
 800228e:	4606      	mov	r6, r0
 8002290:	682b      	ldr	r3, [r5, #0]
 8002292:	0758      	lsls	r0, r3, #29
 8002294:	d511      	bpl.n	80022ba <HAL_RCC_OscConfig+0x202>
 8002296:	f7ff fd51 	bl	8001d3c <HAL_GetREVID>
 800229a:	f241 0303 	movw	r3, #4099	; 0x1003
 800229e:	6922      	ldr	r2, [r4, #16]
 80022a0:	4298      	cmp	r0, r3
 80022a2:	686b      	ldr	r3, [r5, #4]
 80022a4:	d80f      	bhi.n	80022c6 <HAL_RCC_OscConfig+0x20e>
 80022a6:	f423 337c 	bic.w	r3, r3, #258048	; 0x3f000
 80022aa:	2a40      	cmp	r2, #64	; 0x40
 80022ac:	bf0c      	ite	eq
 80022ae:	f443 3300 	orreq.w	r3, r3, #131072	; 0x20000
 80022b2:	ea43 3302 	orrne.w	r3, r3, r2, lsl #12
 80022b6:	606b      	str	r3, [r5, #4]
 80022b8:	e70a      	b.n	80020d0 <HAL_RCC_OscConfig+0x18>
 80022ba:	f7ff fd39 	bl	8001d30 <HAL_GetTick>
 80022be:	1b80      	subs	r0, r0, r6
 80022c0:	2802      	cmp	r0, #2
 80022c2:	d9e5      	bls.n	8002290 <HAL_RCC_OscConfig+0x1d8>
 80022c4:	e789      	b.n	80021da <HAL_RCC_OscConfig+0x122>
 80022c6:	f023 43fe 	bic.w	r3, r3, #2130706432	; 0x7f000000
 80022ca:	ea43 6302 	orr.w	r3, r3, r2, lsl #24
 80022ce:	e7f2      	b.n	80022b6 <HAL_RCC_OscConfig+0x1fe>
 80022d0:	f023 0301 	bic.w	r3, r3, #1
 80022d4:	602b      	str	r3, [r5, #0]
 80022d6:	f7ff fd2b 	bl	8001d30 <HAL_GetTick>
 80022da:	4606      	mov	r6, r0
 80022dc:	682b      	ldr	r3, [r5, #0]
 80022de:	0759      	lsls	r1, r3, #29
 80022e0:	f57f aef6 	bpl.w	80020d0 <HAL_RCC_OscConfig+0x18>
 80022e4:	f7ff fd24 	bl	8001d30 <HAL_GetTick>
 80022e8:	1b80      	subs	r0, r0, r6
 80022ea:	2802      	cmp	r0, #2
 80022ec:	d9f6      	bls.n	80022dc <HAL_RCC_OscConfig+0x224>
 80022ee:	e774      	b.n	80021da <HAL_RCC_OscConfig+0x122>
 80022f0:	68da      	ldr	r2, [r3, #12]
 80022f2:	f022 527c 	bic.w	r2, r2, #1056964608	; 0x3f000000
 80022f6:	ea42 6201 	orr.w	r2, r2, r1, lsl #24
 80022fa:	60da      	str	r2, [r3, #12]
 80022fc:	e713      	b.n	8002126 <HAL_RCC_OscConfig+0x6e>
 80022fe:	69e3      	ldr	r3, [r4, #28]
 8002300:	4d1d      	ldr	r5, [pc, #116]	; (8002378 <HAL_RCC_OscConfig+0x2c0>)
 8002302:	b343      	cbz	r3, 8002356 <HAL_RCC_OscConfig+0x29e>
 8002304:	682b      	ldr	r3, [r5, #0]
 8002306:	f043 0380 	orr.w	r3, r3, #128	; 0x80
 800230a:	602b      	str	r3, [r5, #0]
 800230c:	f7ff fd10 	bl	8001d30 <HAL_GetTick>
 8002310:	4606      	mov	r6, r0
 8002312:	682b      	ldr	r3, [r5, #0]
 8002314:	05df      	lsls	r7, r3, #23
 8002316:	d511      	bpl.n	800233c <HAL_RCC_OscConfig+0x284>
 8002318:	f7ff fd10 	bl	8001d3c <HAL_GetREVID>
 800231c:	f241 0303 	movw	r3, #4099	; 0x1003
 8002320:	6a22      	ldr	r2, [r4, #32]
 8002322:	4298      	cmp	r0, r3
 8002324:	d810      	bhi.n	8002348 <HAL_RCC_OscConfig+0x290>
 8002326:	686b      	ldr	r3, [r5, #4]
 8002328:	2a20      	cmp	r2, #32
 800232a:	f023 43f8 	bic.w	r3, r3, #2080374784	; 0x7c000000
 800232e:	bf0c      	ite	eq
 8002330:	f043 4380 	orreq.w	r3, r3, #1073741824	; 0x40000000
 8002334:	ea43 6382 	orrne.w	r3, r3, r2, lsl #26
 8002338:	606b      	str	r3, [r5, #4]
 800233a:	e6f4      	b.n	8002126 <HAL_RCC_OscConfig+0x6e>
 800233c:	f7ff fcf8 	bl	8001d30 <HAL_GetTick>
 8002340:	1b80      	subs	r0, r0, r6
 8002342:	2802      	cmp	r0, #2
 8002344:	d9e5      	bls.n	8002312 <HAL_RCC_OscConfig+0x25a>
 8002346:	e748      	b.n	80021da <HAL_RCC_OscConfig+0x122>
 8002348:	68eb      	ldr	r3, [r5, #12]
 800234a:	f023 537c 	bic.w	r3, r3, #1056964608	; 0x3f000000
 800234e:	ea43 6302 	orr.w	r3, r3, r2, lsl #24
 8002352:	60eb      	str	r3, [r5, #12]
 8002354:	e6e7      	b.n	8002126 <HAL_RCC_OscConfig+0x6e>
 8002356:	682b      	ldr	r3, [r5, #0]
 8002358:	f023 0380 	bic.w	r3, r3, #128	; 0x80
 800235c:	602b      	str	r3, [r5, #0]
 800235e:	f7ff fce7 	bl	8001d30 <HAL_GetTick>
 8002362:	4606      	mov	r6, r0
 8002364:	682b      	ldr	r3, [r5, #0]
 8002366:	05d8      	lsls	r0, r3, #23
 8002368:	f57f aedd 	bpl.w	8002126 <HAL_RCC_OscConfig+0x6e>
 800236c:	f7ff fce0 	bl	8001d30 <HAL_GetTick>
 8002370:	1b80      	subs	r0, r0, r6
 8002372:	2802      	cmp	r0, #2
 8002374:	d9f6      	bls.n	8002364 <HAL_RCC_OscConfig+0x2ac>
 8002376:	e730      	b.n	80021da <HAL_RCC_OscConfig+0x122>
 8002378:	58024400 	.word	0x58024400
 800237c:	58024800 	.word	0x58024800
 8002380:	6963      	ldr	r3, [r4, #20]
 8002382:	4d96      	ldr	r5, [pc, #600]	; (80025dc <HAL_RCC_OscConfig+0x524>)
 8002384:	b183      	cbz	r3, 80023a8 <HAL_RCC_OscConfig+0x2f0>
 8002386:	6f6b      	ldr	r3, [r5, #116]	; 0x74
 8002388:	f043 0301 	orr.w	r3, r3, #1
 800238c:	676b      	str	r3, [r5, #116]	; 0x74
 800238e:	f7ff fccf 	bl	8001d30 <HAL_GetTick>
 8002392:	4606      	mov	r6, r0
 8002394:	6f6b      	ldr	r3, [r5, #116]	; 0x74
 8002396:	079b      	lsls	r3, r3, #30
 8002398:	f53f aec9 	bmi.w	800212e <HAL_RCC_OscConfig+0x76>
 800239c:	f7ff fcc8 	bl	8001d30 <HAL_GetTick>
 80023a0:	1b80      	subs	r0, r0, r6
 80023a2:	2802      	cmp	r0, #2
 80023a4:	d9f6      	bls.n	8002394 <HAL_RCC_OscConfig+0x2dc>
 80023a6:	e718      	b.n	80021da <HAL_RCC_OscConfig+0x122>
 80023a8:	6f6b      	ldr	r3, [r5, #116]	; 0x74
 80023aa:	f023 0301 	bic.w	r3, r3, #1
 80023ae:	676b      	str	r3, [r5, #116]	; 0x74
 80023b0:	f7ff fcbe 	bl	8001d30 <HAL_GetTick>
 80023b4:	4606      	mov	r6, r0
 80023b6:	6f6b      	ldr	r3, [r5, #116]	; 0x74
 80023b8:	079f      	lsls	r7, r3, #30
 80023ba:	f57f aeb8 	bpl.w	800212e <HAL_RCC_OscConfig+0x76>
 80023be:	f7ff fcb7 	bl	8001d30 <HAL_GetTick>
 80023c2:	1b80      	subs	r0, r0, r6
 80023c4:	2802      	cmp	r0, #2
 80023c6:	d9f6      	bls.n	80023b6 <HAL_RCC_OscConfig+0x2fe>
 80023c8:	e707      	b.n	80021da <HAL_RCC_OscConfig+0x122>
 80023ca:	69a3      	ldr	r3, [r4, #24]
 80023cc:	4d83      	ldr	r5, [pc, #524]	; (80025dc <HAL_RCC_OscConfig+0x524>)
 80023ce:	b183      	cbz	r3, 80023f2 <HAL_RCC_OscConfig+0x33a>
 80023d0:	682b      	ldr	r3, [r5, #0]
 80023d2:	f443 5380 	orr.w	r3, r3, #4096	; 0x1000
 80023d6:	602b      	str	r3, [r5, #0]
 80023d8:	f7ff fcaa 	bl	8001d30 <HAL_GetTick>
 80023dc:	4606      	mov	r6, r0
 80023de:	682b      	ldr	r3, [r5, #0]
 80023e0:	0498      	lsls	r0, r3, #18
 80023e2:	f53f aea8 	bmi.w	8002136 <HAL_RCC_OscConfig+0x7e>
 80023e6:	f7ff fca3 	bl	8001d30 <HAL_GetTick>
 80023ea:	1b80      	subs	r0, r0, r6
 80023ec:	2802      	cmp	r0, #2
 80023ee:	d9f6      	bls.n	80023de <HAL_RCC_OscConfig+0x326>
 80023f0:	e6f3      	b.n	80021da <HAL_RCC_OscConfig+0x122>
 80023f2:	682b      	ldr	r3, [r5, #0]
 80023f4:	f423 5380 	bic.w	r3, r3, #4096	; 0x1000
 80023f8:	602b      	str	r3, [r5, #0]
 80023fa:	f7ff fc99 	bl	8001d30 <HAL_GetTick>
 80023fe:	4606      	mov	r6, r0
 8002400:	682b      	ldr	r3, [r5, #0]
 8002402:	0499      	lsls	r1, r3, #18
 8002404:	f57f ae97 	bpl.w	8002136 <HAL_RCC_OscConfig+0x7e>
 8002408:	f7ff fc92 	bl	8001d30 <HAL_GetTick>
 800240c:	1b80      	subs	r0, r0, r6
 800240e:	2802      	cmp	r0, #2
 8002410:	d9f6      	bls.n	8002400 <HAL_RCC_OscConfig+0x348>
 8002412:	e6e2      	b.n	80021da <HAL_RCC_OscConfig+0x122>
 8002414:	f7ff fc8c 	bl	8001d30 <HAL_GetTick>
 8002418:	1b80      	subs	r0, r0, r6
 800241a:	2864      	cmp	r0, #100	; 0x64
 800241c:	f67f ae96 	bls.w	800214c <HAL_RCC_OscConfig+0x94>
 8002420:	e6db      	b.n	80021da <HAL_RCC_OscConfig+0x122>
 8002422:	b9b3      	cbnz	r3, 8002452 <HAL_RCC_OscConfig+0x39a>
 8002424:	6f2b      	ldr	r3, [r5, #112]	; 0x70
 8002426:	f241 3788 	movw	r7, #5000	; 0x1388
 800242a:	f023 0301 	bic.w	r3, r3, #1
 800242e:	672b      	str	r3, [r5, #112]	; 0x70
 8002430:	6f2b      	ldr	r3, [r5, #112]	; 0x70
 8002432:	f023 0304 	bic.w	r3, r3, #4
 8002436:	672b      	str	r3, [r5, #112]	; 0x70
 8002438:	f7ff fc7a 	bl	8001d30 <HAL_GetTick>
 800243c:	4606      	mov	r6, r0
 800243e:	6f2b      	ldr	r3, [r5, #112]	; 0x70
 8002440:	0798      	lsls	r0, r3, #30
 8002442:	f57f ae9a 	bpl.w	800217a <HAL_RCC_OscConfig+0xc2>
 8002446:	f7ff fc73 	bl	8001d30 <HAL_GetTick>
 800244a:	1b80      	subs	r0, r0, r6
 800244c:	42b8      	cmp	r0, r7
 800244e:	d9f6      	bls.n	800243e <HAL_RCC_OscConfig+0x386>
 8002450:	e6c3      	b.n	80021da <HAL_RCC_OscConfig+0x122>
 8002452:	2b05      	cmp	r3, #5
 8002454:	6f2b      	ldr	r3, [r5, #112]	; 0x70
 8002456:	d103      	bne.n	8002460 <HAL_RCC_OscConfig+0x3a8>
 8002458:	f043 0304 	orr.w	r3, r3, #4
 800245c:	672b      	str	r3, [r5, #112]	; 0x70
 800245e:	e67e      	b.n	800215e <HAL_RCC_OscConfig+0xa6>
 8002460:	f023 0301 	bic.w	r3, r3, #1
 8002464:	672b      	str	r3, [r5, #112]	; 0x70
 8002466:	6f2b      	ldr	r3, [r5, #112]	; 0x70
 8002468:	f023 0304 	bic.w	r3, r3, #4
 800246c:	e67a      	b.n	8002164 <HAL_RCC_OscConfig+0xac>
 800246e:	f7ff fc5f 	bl	8001d30 <HAL_GetTick>
 8002472:	1bc0      	subs	r0, r0, r7
 8002474:	42a8      	cmp	r0, r5
 8002476:	f67f ae7c 	bls.w	8002172 <HAL_RCC_OscConfig+0xba>
 800247a:	e6ae      	b.n	80021da <HAL_RCC_OscConfig+0x122>
 800247c:	4d57      	ldr	r5, [pc, #348]	; (80025dc <HAL_RCC_OscConfig+0x524>)
 800247e:	692b      	ldr	r3, [r5, #16]
 8002480:	f003 0338 	and.w	r3, r3, #56	; 0x38
 8002484:	2b18      	cmp	r3, #24
 8002486:	d07a      	beq.n	800257e <HAL_RCC_OscConfig+0x4c6>
 8002488:	682b      	ldr	r3, [r5, #0]
 800248a:	2802      	cmp	r0, #2
 800248c:	f023 7380 	bic.w	r3, r3, #16777216	; 0x1000000
 8002490:	602b      	str	r3, [r5, #0]
 8002492:	d167      	bne.n	8002564 <HAL_RCC_OscConfig+0x4ac>
 8002494:	f7ff fc4c 	bl	8001d30 <HAL_GetTick>
 8002498:	4606      	mov	r6, r0
 800249a:	682b      	ldr	r3, [r5, #0]
 800249c:	0199      	lsls	r1, r3, #6
 800249e:	d45b      	bmi.n	8002558 <HAL_RCC_OscConfig+0x4a0>
 80024a0:	6aab      	ldr	r3, [r5, #40]	; 0x28
 80024a2:	6aa2      	ldr	r2, [r4, #40]	; 0x28
 80024a4:	f423 737c 	bic.w	r3, r3, #1008	; 0x3f0
 80024a8:	f023 0303 	bic.w	r3, r3, #3
 80024ac:	4313      	orrs	r3, r2
 80024ae:	6ae2      	ldr	r2, [r4, #44]	; 0x2c
 80024b0:	ea43 1302 	orr.w	r3, r3, r2, lsl #4
 80024b4:	62ab      	str	r3, [r5, #40]	; 0x28
 80024b6:	6b63      	ldr	r3, [r4, #52]	; 0x34
 80024b8:	6ba2      	ldr	r2, [r4, #56]	; 0x38
 80024ba:	3b01      	subs	r3, #1
 80024bc:	3a01      	subs	r2, #1
 80024be:	025b      	lsls	r3, r3, #9
 80024c0:	0412      	lsls	r2, r2, #16
 80024c2:	b29b      	uxth	r3, r3
 80024c4:	f402 02fe 	and.w	r2, r2, #8323072	; 0x7f0000
 80024c8:	4313      	orrs	r3, r2
 80024ca:	6b22      	ldr	r2, [r4, #48]	; 0x30
 80024cc:	3a01      	subs	r2, #1
 80024ce:	f3c2 0208 	ubfx	r2, r2, #0, #9
 80024d2:	4313      	orrs	r3, r2
 80024d4:	6be2      	ldr	r2, [r4, #60]	; 0x3c
 80024d6:	3a01      	subs	r2, #1
 80024d8:	0612      	lsls	r2, r2, #24
 80024da:	f002 42fe 	and.w	r2, r2, #2130706432	; 0x7f000000
 80024de:	4313      	orrs	r3, r2
 80024e0:	632b      	str	r3, [r5, #48]	; 0x30
 80024e2:	6aeb      	ldr	r3, [r5, #44]	; 0x2c
 80024e4:	f023 0301 	bic.w	r3, r3, #1
 80024e8:	62eb      	str	r3, [r5, #44]	; 0x2c
 80024ea:	6b6b      	ldr	r3, [r5, #52]	; 0x34
 80024ec:	6ca2      	ldr	r2, [r4, #72]	; 0x48
 80024ee:	f423 437f 	bic.w	r3, r3, #65280	; 0xff00
 80024f2:	f023 03f8 	bic.w	r3, r3, #248	; 0xf8
 80024f6:	ea43 03c2 	orr.w	r3, r3, r2, lsl #3
 80024fa:	636b      	str	r3, [r5, #52]	; 0x34
 80024fc:	6aeb      	ldr	r3, [r5, #44]	; 0x2c
 80024fe:	6c22      	ldr	r2, [r4, #64]	; 0x40
 8002500:	f023 030c 	bic.w	r3, r3, #12
 8002504:	4313      	orrs	r3, r2
 8002506:	62eb      	str	r3, [r5, #44]	; 0x2c
 8002508:	6aeb      	ldr	r3, [r5, #44]	; 0x2c
 800250a:	6c62      	ldr	r2, [r4, #68]	; 0x44
 800250c:	f023 0302 	bic.w	r3, r3, #2
 8002510:	4c32      	ldr	r4, [pc, #200]	; (80025dc <HAL_RCC_OscConfig+0x524>)
 8002512:	4313      	orrs	r3, r2
 8002514:	62eb      	str	r3, [r5, #44]	; 0x2c
 8002516:	6aeb      	ldr	r3, [r5, #44]	; 0x2c
 8002518:	f443 3380 	orr.w	r3, r3, #65536	; 0x10000
 800251c:	62eb      	str	r3, [r5, #44]	; 0x2c
 800251e:	6aeb      	ldr	r3, [r5, #44]	; 0x2c
 8002520:	f443 3300 	orr.w	r3, r3, #131072	; 0x20000
 8002524:	62eb      	str	r3, [r5, #44]	; 0x2c
 8002526:	6aeb      	ldr	r3, [r5, #44]	; 0x2c
 8002528:	f443 2380 	orr.w	r3, r3, #262144	; 0x40000
 800252c:	62eb      	str	r3, [r5, #44]	; 0x2c
 800252e:	6aeb      	ldr	r3, [r5, #44]	; 0x2c
 8002530:	f043 0301 	orr.w	r3, r3, #1
 8002534:	62eb      	str	r3, [r5, #44]	; 0x2c
 8002536:	682b      	ldr	r3, [r5, #0]
 8002538:	f043 7380 	orr.w	r3, r3, #16777216	; 0x1000000
 800253c:	602b      	str	r3, [r5, #0]
 800253e:	f7ff fbf7 	bl	8001d30 <HAL_GetTick>
 8002542:	4605      	mov	r5, r0
 8002544:	6823      	ldr	r3, [r4, #0]
 8002546:	019a      	lsls	r2, r3, #6
 8002548:	f53f ae1b 	bmi.w	8002182 <HAL_RCC_OscConfig+0xca>
 800254c:	f7ff fbf0 	bl	8001d30 <HAL_GetTick>
 8002550:	1b40      	subs	r0, r0, r5
 8002552:	2802      	cmp	r0, #2
 8002554:	d9f6      	bls.n	8002544 <HAL_RCC_OscConfig+0x48c>
 8002556:	e640      	b.n	80021da <HAL_RCC_OscConfig+0x122>
 8002558:	f7ff fbea 	bl	8001d30 <HAL_GetTick>
 800255c:	1b80      	subs	r0, r0, r6
 800255e:	2802      	cmp	r0, #2
 8002560:	d99b      	bls.n	800249a <HAL_RCC_OscConfig+0x3e2>
 8002562:	e63a      	b.n	80021da <HAL_RCC_OscConfig+0x122>
 8002564:	f7ff fbe4 	bl	8001d30 <HAL_GetTick>
 8002568:	4604      	mov	r4, r0
 800256a:	682b      	ldr	r3, [r5, #0]
 800256c:	019b      	lsls	r3, r3, #6
 800256e:	f57f ae08 	bpl.w	8002182 <HAL_RCC_OscConfig+0xca>
 8002572:	f7ff fbdd 	bl	8001d30 <HAL_GetTick>
 8002576:	1b00      	subs	r0, r0, r4
 8002578:	2802      	cmp	r0, #2
 800257a:	d9f6      	bls.n	800256a <HAL_RCC_OscConfig+0x4b2>
 800257c:	e62d      	b.n	80021da <HAL_RCC_OscConfig+0x122>
 800257e:	2801      	cmp	r0, #1
 8002580:	6aaa      	ldr	r2, [r5, #40]	; 0x28
 8002582:	6b2b      	ldr	r3, [r5, #48]	; 0x30
 8002584:	f43f ae2a 	beq.w	80021dc <HAL_RCC_OscConfig+0x124>
 8002588:	f002 0103 	and.w	r1, r2, #3
 800258c:	6aa0      	ldr	r0, [r4, #40]	; 0x28
 800258e:	4281      	cmp	r1, r0
 8002590:	f47f ad95 	bne.w	80020be <HAL_RCC_OscConfig+0x6>
 8002594:	f3c2 1205 	ubfx	r2, r2, #4, #6
 8002598:	6ae1      	ldr	r1, [r4, #44]	; 0x2c
 800259a:	428a      	cmp	r2, r1
 800259c:	f47f ad8f 	bne.w	80020be <HAL_RCC_OscConfig+0x6>
 80025a0:	6b22      	ldr	r2, [r4, #48]	; 0x30
 80025a2:	f3c3 0108 	ubfx	r1, r3, #0, #9
 80025a6:	3a01      	subs	r2, #1
 80025a8:	4291      	cmp	r1, r2
 80025aa:	f47f ad88 	bne.w	80020be <HAL_RCC_OscConfig+0x6>
 80025ae:	6b62      	ldr	r2, [r4, #52]	; 0x34
 80025b0:	f3c3 2146 	ubfx	r1, r3, #9, #7
 80025b4:	3a01      	subs	r2, #1
 80025b6:	4291      	cmp	r1, r2
 80025b8:	f47f ad81 	bne.w	80020be <HAL_RCC_OscConfig+0x6>
 80025bc:	6ba2      	ldr	r2, [r4, #56]	; 0x38
 80025be:	f3c3 4106 	ubfx	r1, r3, #16, #7
 80025c2:	3a01      	subs	r2, #1
 80025c4:	4291      	cmp	r1, r2
 80025c6:	f47f ad7a 	bne.w	80020be <HAL_RCC_OscConfig+0x6>
 80025ca:	6be0      	ldr	r0, [r4, #60]	; 0x3c
 80025cc:	f3c3 6306 	ubfx	r3, r3, #24, #7
 80025d0:	3801      	subs	r0, #1
 80025d2:	1a18      	subs	r0, r3, r0
 80025d4:	bf18      	it	ne
 80025d6:	2001      	movne	r0, #1
 80025d8:	e600      	b.n	80021dc <HAL_RCC_OscConfig+0x124>
 80025da:	bf00      	nop
 80025dc:	58024400 	.word	0x58024400

080025e0 <HAL_RCC_GetSysClockFreq>:
 80025e0:	4b46      	ldr	r3, [pc, #280]	; (80026fc <HAL_RCC_GetSysClockFreq+0x11c>)
 80025e2:	691a      	ldr	r2, [r3, #16]
 80025e4:	f002 0238 	and.w	r2, r2, #56	; 0x38
 80025e8:	2a10      	cmp	r2, #16
 80025ea:	b510      	push	{r4, lr}
 80025ec:	f000 8084 	beq.w	80026f8 <HAL_RCC_GetSysClockFreq+0x118>
 80025f0:	2a18      	cmp	r2, #24
 80025f2:	d00c      	beq.n	800260e <HAL_RCC_GetSysClockFreq+0x2e>
 80025f4:	b10a      	cbz	r2, 80025fa <HAL_RCC_GetSysClockFreq+0x1a>
 80025f6:	4842      	ldr	r0, [pc, #264]	; (8002700 <HAL_RCC_GetSysClockFreq+0x120>)
 80025f8:	bd10      	pop	{r4, pc}
 80025fa:	681a      	ldr	r2, [r3, #0]
 80025fc:	4841      	ldr	r0, [pc, #260]	; (8002704 <HAL_RCC_GetSysClockFreq+0x124>)
 80025fe:	f012 0f20 	tst.w	r2, #32
 8002602:	d0f9      	beq.n	80025f8 <HAL_RCC_GetSysClockFreq+0x18>
 8002604:	681b      	ldr	r3, [r3, #0]
 8002606:	f3c3 03c1 	ubfx	r3, r3, #3, #2
 800260a:	40d8      	lsrs	r0, r3
 800260c:	e7f4      	b.n	80025f8 <HAL_RCC_GetSysClockFreq+0x18>
 800260e:	6a99      	ldr	r1, [r3, #40]	; 0x28
 8002610:	6a98      	ldr	r0, [r3, #40]	; 0x28
 8002612:	6ada      	ldr	r2, [r3, #44]	; 0x2c
 8002614:	f3c0 1005 	ubfx	r0, r0, #4, #6
 8002618:	6b5c      	ldr	r4, [r3, #52]	; 0x34
 800261a:	2800      	cmp	r0, #0
 800261c:	d0ec      	beq.n	80025f8 <HAL_RCC_GetSysClockFreq+0x18>
 800261e:	ee07 0a90 	vmov	s15, r0
 8002622:	f002 0201 	and.w	r2, r2, #1
 8002626:	f3c4 00cc 	ubfx	r0, r4, #3, #13
 800262a:	eeb7 6a00 	vmov.f32	s12, #112	; 0x3f800000  1.0
 800262e:	eef8 6ae7 	vcvt.f32.s32	s13, s15
 8002632:	4342      	muls	r2, r0
 8002634:	ee07 2a90 	vmov	s15, r2
 8002638:	f001 0203 	and.w	r2, r1, #3
 800263c:	2a01      	cmp	r2, #1
 800263e:	eefa 7ae9 	vcvt.f32.s32	s15, s15, #13
 8002642:	d002      	beq.n	800264a <HAL_RCC_GetSysClockFreq+0x6a>
 8002644:	d30f      	bcc.n	8002666 <HAL_RCC_GetSysClockFreq+0x86>
 8002646:	2a02      	cmp	r2, #2
 8002648:	d048      	beq.n	80026dc <HAL_RCC_GetSysClockFreq+0xfc>
 800264a:	6b1b      	ldr	r3, [r3, #48]	; 0x30
 800264c:	f3c3 0308 	ubfx	r3, r3, #0, #9
 8002650:	ee07 3a10 	vmov	s14, r3
 8002654:	eeb8 7ac7 	vcvt.f32.s32	s14, s14
 8002658:	ee77 7a27 	vadd.f32	s15, s14, s15
 800265c:	ee77 7a86 	vadd.f32	s15, s15, s12
 8002660:	ed9f 6a29 	vldr	s12, [pc, #164]	; 8002708 <HAL_RCC_GetSysClockFreq+0x128>
 8002664:	e037      	b.n	80026d6 <HAL_RCC_GetSysClockFreq+0xf6>
 8002666:	681a      	ldr	r2, [r3, #0]
 8002668:	0692      	lsls	r2, r2, #26
 800266a:	d527      	bpl.n	80026bc <HAL_RCC_GetSysClockFreq+0xdc>
 800266c:	6819      	ldr	r1, [r3, #0]
 800266e:	4a25      	ldr	r2, [pc, #148]	; (8002704 <HAL_RCC_GetSysClockFreq+0x124>)
 8002670:	f3c1 01c1 	ubfx	r1, r1, #3, #2
 8002674:	6b1b      	ldr	r3, [r3, #48]	; 0x30
 8002676:	40ca      	lsrs	r2, r1
 8002678:	f3c3 0308 	ubfx	r3, r3, #0, #9
 800267c:	ee07 2a10 	vmov	s14, r2
 8002680:	eef8 5ac7 	vcvt.f32.s32	s11, s14
 8002684:	ee85 7aa6 	vdiv.f32	s14, s11, s13
 8002688:	ee06 3a90 	vmov	s13, r3
 800268c:	eef8 6ae6 	vcvt.f32.s32	s13, s13
 8002690:	ee76 7aa7 	vadd.f32	s15, s13, s15
 8002694:	ee77 7a86 	vadd.f32	s15, s15, s12
 8002698:	4b18      	ldr	r3, [pc, #96]	; (80026fc <HAL_RCC_GetSysClockFreq+0x11c>)
 800269a:	ee67 7a87 	vmul.f32	s15, s15, s14
 800269e:	6b1b      	ldr	r3, [r3, #48]	; 0x30
 80026a0:	f3c3 2346 	ubfx	r3, r3, #9, #7
 80026a4:	3301      	adds	r3, #1
 80026a6:	ee07 3a10 	vmov	s14, r3
 80026aa:	eef8 6ac7 	vcvt.f32.s32	s13, s14
 80026ae:	ee87 7aa6 	vdiv.f32	s14, s15, s13
 80026b2:	eefc 7ac7 	vcvt.u32.f32	s15, s14
 80026b6:	ee17 0a90 	vmov	r0, s15
 80026ba:	e79d      	b.n	80025f8 <HAL_RCC_GetSysClockFreq+0x18>
 80026bc:	6b1b      	ldr	r3, [r3, #48]	; 0x30
 80026be:	f3c3 0308 	ubfx	r3, r3, #0, #9
 80026c2:	ee07 3a10 	vmov	s14, r3
 80026c6:	eeb8 7ac7 	vcvt.f32.s32	s14, s14
 80026ca:	ee77 7a27 	vadd.f32	s15, s14, s15
 80026ce:	ee77 7a86 	vadd.f32	s15, s15, s12
 80026d2:	ed9f 6a0e 	vldr	s12, [pc, #56]	; 800270c <HAL_RCC_GetSysClockFreq+0x12c>
 80026d6:	ee86 7a26 	vdiv.f32	s14, s12, s13
 80026da:	e7dd      	b.n	8002698 <HAL_RCC_GetSysClockFreq+0xb8>
 80026dc:	6b1b      	ldr	r3, [r3, #48]	; 0x30
 80026de:	f3c3 0308 	ubfx	r3, r3, #0, #9
 80026e2:	ee07 3a10 	vmov	s14, r3
 80026e6:	eeb8 7ac7 	vcvt.f32.s32	s14, s14
 80026ea:	ee77 7a27 	vadd.f32	s15, s14, s15
 80026ee:	ee77 7a86 	vadd.f32	s15, s15, s12
 80026f2:	ed9f 6a07 	vldr	s12, [pc, #28]	; 8002710 <HAL_RCC_GetSysClockFreq+0x130>
 80026f6:	e7ee      	b.n	80026d6 <HAL_RCC_GetSysClockFreq+0xf6>
 80026f8:	4806      	ldr	r0, [pc, #24]	; (8002714 <HAL_RCC_GetSysClockFreq+0x134>)
 80026fa:	e77d      	b.n	80025f8 <HAL_RCC_GetSysClockFreq+0x18>
 80026fc:	58024400 	.word	0x58024400
 8002700:	003d0900 	.word	0x003d0900
 8002704:	03d09000 	.word	0x03d09000
 8002708:	4a742400 	.word	0x4a742400
 800270c:	4c742400 	.word	0x4c742400
 8002710:	4b742400 	.word	0x4b742400
 8002714:	00f42400 	.word	0x00f42400

08002718 <HAL_RCC_ClockConfig>:
 8002718:	e92d 41f0 	stmdb	sp!, {r4, r5, r6, r7, r8, lr}
 800271c:	460d      	mov	r5, r1
 800271e:	4604      	mov	r4, r0
 8002720:	b910      	cbnz	r0, 8002728 <HAL_RCC_ClockConfig+0x10>
 8002722:	2001      	movs	r0, #1
 8002724:	e8bd 81f0 	ldmia.w	sp!, {r4, r5, r6, r7, r8, pc}
 8002728:	4a88      	ldr	r2, [pc, #544]	; (800294c <HAL_RCC_ClockConfig+0x234>)
 800272a:	6813      	ldr	r3, [r2, #0]
 800272c:	f003 030f 	and.w	r3, r3, #15
 8002730:	428b      	cmp	r3, r1
 8002732:	f0c0 8093 	bcc.w	800285c <HAL_RCC_ClockConfig+0x144>
 8002736:	6823      	ldr	r3, [r4, #0]
 8002738:	075f      	lsls	r7, r3, #29
 800273a:	f100 809b 	bmi.w	8002874 <HAL_RCC_ClockConfig+0x15c>
 800273e:	071e      	lsls	r6, r3, #28
 8002740:	d50b      	bpl.n	800275a <HAL_RCC_ClockConfig+0x42>
 8002742:	4983      	ldr	r1, [pc, #524]	; (8002950 <HAL_RCC_ClockConfig+0x238>)
 8002744:	6966      	ldr	r6, [r4, #20]
 8002746:	69c8      	ldr	r0, [r1, #28]
 8002748:	f000 0070 	and.w	r0, r0, #112	; 0x70
 800274c:	4286      	cmp	r6, r0
 800274e:	d904      	bls.n	800275a <HAL_RCC_ClockConfig+0x42>
 8002750:	69ca      	ldr	r2, [r1, #28]
 8002752:	f022 0270 	bic.w	r2, r2, #112	; 0x70
 8002756:	4332      	orrs	r2, r6
 8002758:	61ca      	str	r2, [r1, #28]
 800275a:	06d8      	lsls	r0, r3, #27
 800275c:	d50b      	bpl.n	8002776 <HAL_RCC_ClockConfig+0x5e>
 800275e:	497c      	ldr	r1, [pc, #496]	; (8002950 <HAL_RCC_ClockConfig+0x238>)
 8002760:	69a6      	ldr	r6, [r4, #24]
 8002762:	69c8      	ldr	r0, [r1, #28]
 8002764:	f400 60e0 	and.w	r0, r0, #1792	; 0x700
 8002768:	4286      	cmp	r6, r0
 800276a:	d904      	bls.n	8002776 <HAL_RCC_ClockConfig+0x5e>
 800276c:	69ca      	ldr	r2, [r1, #28]
 800276e:	f422 62e0 	bic.w	r2, r2, #1792	; 0x700
 8002772:	4332      	orrs	r2, r6
 8002774:	61ca      	str	r2, [r1, #28]
 8002776:	0699      	lsls	r1, r3, #26
 8002778:	d50b      	bpl.n	8002792 <HAL_RCC_ClockConfig+0x7a>
 800277a:	4975      	ldr	r1, [pc, #468]	; (8002950 <HAL_RCC_ClockConfig+0x238>)
 800277c:	69e6      	ldr	r6, [r4, #28]
 800277e:	6a08      	ldr	r0, [r1, #32]
 8002780:	f000 0070 	and.w	r0, r0, #112	; 0x70
 8002784:	4286      	cmp	r6, r0
 8002786:	d904      	bls.n	8002792 <HAL_RCC_ClockConfig+0x7a>
 8002788:	6a0a      	ldr	r2, [r1, #32]
 800278a:	f022 0270 	bic.w	r2, r2, #112	; 0x70
 800278e:	4332      	orrs	r2, r6
 8002790:	620a      	str	r2, [r1, #32]
 8002792:	079a      	lsls	r2, r3, #30
 8002794:	d50b      	bpl.n	80027ae <HAL_RCC_ClockConfig+0x96>
 8002796:	496e      	ldr	r1, [pc, #440]	; (8002950 <HAL_RCC_ClockConfig+0x238>)
 8002798:	68e6      	ldr	r6, [r4, #12]
 800279a:	6988      	ldr	r0, [r1, #24]
 800279c:	f000 000f 	and.w	r0, r0, #15
 80027a0:	4286      	cmp	r6, r0
 80027a2:	d904      	bls.n	80027ae <HAL_RCC_ClockConfig+0x96>
 80027a4:	698a      	ldr	r2, [r1, #24]
 80027a6:	f022 020f 	bic.w	r2, r2, #15
 80027aa:	4332      	orrs	r2, r6
 80027ac:	618a      	str	r2, [r1, #24]
 80027ae:	07df      	lsls	r7, r3, #31
 80027b0:	d46e      	bmi.n	8002890 <HAL_RCC_ClockConfig+0x178>
 80027b2:	6823      	ldr	r3, [r4, #0]
 80027b4:	079e      	lsls	r6, r3, #30
 80027b6:	f100 80a1 	bmi.w	80028fc <HAL_RCC_ClockConfig+0x1e4>
 80027ba:	4964      	ldr	r1, [pc, #400]	; (800294c <HAL_RCC_ClockConfig+0x234>)
 80027bc:	680a      	ldr	r2, [r1, #0]
 80027be:	f002 020f 	and.w	r2, r2, #15
 80027c2:	42aa      	cmp	r2, r5
 80027c4:	f200 80a8 	bhi.w	8002918 <HAL_RCC_ClockConfig+0x200>
 80027c8:	0758      	lsls	r0, r3, #29
 80027ca:	f100 80b1 	bmi.w	8002930 <HAL_RCC_ClockConfig+0x218>
 80027ce:	0719      	lsls	r1, r3, #28
 80027d0:	d50b      	bpl.n	80027ea <HAL_RCC_ClockConfig+0xd2>
 80027d2:	495f      	ldr	r1, [pc, #380]	; (8002950 <HAL_RCC_ClockConfig+0x238>)
 80027d4:	6965      	ldr	r5, [r4, #20]
 80027d6:	69c8      	ldr	r0, [r1, #28]
 80027d8:	f000 0070 	and.w	r0, r0, #112	; 0x70
 80027dc:	4285      	cmp	r5, r0
 80027de:	d204      	bcs.n	80027ea <HAL_RCC_ClockConfig+0xd2>
 80027e0:	69ca      	ldr	r2, [r1, #28]
 80027e2:	f022 0270 	bic.w	r2, r2, #112	; 0x70
 80027e6:	432a      	orrs	r2, r5
 80027e8:	61ca      	str	r2, [r1, #28]
 80027ea:	06da      	lsls	r2, r3, #27
 80027ec:	d50b      	bpl.n	8002806 <HAL_RCC_ClockConfig+0xee>
 80027ee:	4958      	ldr	r1, [pc, #352]	; (8002950 <HAL_RCC_ClockConfig+0x238>)
 80027f0:	69a5      	ldr	r5, [r4, #24]
 80027f2:	69c8      	ldr	r0, [r1, #28]
 80027f4:	f400 60e0 	and.w	r0, r0, #1792	; 0x700
 80027f8:	4285      	cmp	r5, r0
 80027fa:	d204      	bcs.n	8002806 <HAL_RCC_ClockConfig+0xee>
 80027fc:	69ca      	ldr	r2, [r1, #28]
 80027fe:	f422 62e0 	bic.w	r2, r2, #1792	; 0x700
 8002802:	432a      	orrs	r2, r5
 8002804:	61ca      	str	r2, [r1, #28]
 8002806:	069b      	lsls	r3, r3, #26
 8002808:	d50b      	bpl.n	8002822 <HAL_RCC_ClockConfig+0x10a>
 800280a:	4a51      	ldr	r2, [pc, #324]	; (8002950 <HAL_RCC_ClockConfig+0x238>)
 800280c:	69e0      	ldr	r0, [r4, #28]
 800280e:	6a11      	ldr	r1, [r2, #32]
 8002810:	f001 0170 	and.w	r1, r1, #112	; 0x70
 8002814:	4288      	cmp	r0, r1
 8002816:	d204      	bcs.n	8002822 <HAL_RCC_ClockConfig+0x10a>
 8002818:	6a13      	ldr	r3, [r2, #32]
 800281a:	f023 0370 	bic.w	r3, r3, #112	; 0x70
 800281e:	4303      	orrs	r3, r0
 8002820:	6213      	str	r3, [r2, #32]
 8002822:	f7ff fedd 	bl	80025e0 <HAL_RCC_GetSysClockFreq>
 8002826:	494a      	ldr	r1, [pc, #296]	; (8002950 <HAL_RCC_ClockConfig+0x238>)
 8002828:	4a4a      	ldr	r2, [pc, #296]	; (8002954 <HAL_RCC_ClockConfig+0x23c>)
 800282a:	698b      	ldr	r3, [r1, #24]
 800282c:	f3c3 2303 	ubfx	r3, r3, #8, #4
 8002830:	5cd3      	ldrb	r3, [r2, r3]
 8002832:	f003 031f 	and.w	r3, r3, #31
 8002836:	40d8      	lsrs	r0, r3
 8002838:	698b      	ldr	r3, [r1, #24]
 800283a:	f003 030f 	and.w	r3, r3, #15
 800283e:	5cd3      	ldrb	r3, [r2, r3]
 8002840:	4a45      	ldr	r2, [pc, #276]	; (8002958 <HAL_RCC_ClockConfig+0x240>)
 8002842:	f003 031f 	and.w	r3, r3, #31
 8002846:	fa20 f303 	lsr.w	r3, r0, r3
 800284a:	6013      	str	r3, [r2, #0]
 800284c:	4b43      	ldr	r3, [pc, #268]	; (800295c <HAL_RCC_ClockConfig+0x244>)
 800284e:	6018      	str	r0, [r3, #0]
 8002850:	4b43      	ldr	r3, [pc, #268]	; (8002960 <HAL_RCC_ClockConfig+0x248>)
 8002852:	e8bd 41f0 	ldmia.w	sp!, {r4, r5, r6, r7, r8, lr}
 8002856:	6818      	ldr	r0, [r3, #0]
 8002858:	f7ff ba0a 	b.w	8001c70 <HAL_InitTick>
 800285c:	6813      	ldr	r3, [r2, #0]
 800285e:	f023 030f 	bic.w	r3, r3, #15
 8002862:	430b      	orrs	r3, r1
 8002864:	6013      	str	r3, [r2, #0]
 8002866:	6813      	ldr	r3, [r2, #0]
 8002868:	f003 030f 	and.w	r3, r3, #15
 800286c:	428b      	cmp	r3, r1
 800286e:	f47f af58 	bne.w	8002722 <HAL_RCC_ClockConfig+0xa>
 8002872:	e760      	b.n	8002736 <HAL_RCC_ClockConfig+0x1e>
 8002874:	4936      	ldr	r1, [pc, #216]	; (8002950 <HAL_RCC_ClockConfig+0x238>)
 8002876:	6926      	ldr	r6, [r4, #16]
 8002878:	6988      	ldr	r0, [r1, #24]
 800287a:	f000 0070 	and.w	r0, r0, #112	; 0x70
 800287e:	4286      	cmp	r6, r0
 8002880:	f67f af5d 	bls.w	800273e <HAL_RCC_ClockConfig+0x26>
 8002884:	698a      	ldr	r2, [r1, #24]
 8002886:	f022 0270 	bic.w	r2, r2, #112	; 0x70
 800288a:	4332      	orrs	r2, r6
 800288c:	618a      	str	r2, [r1, #24]
 800288e:	e756      	b.n	800273e <HAL_RCC_ClockConfig+0x26>
 8002890:	4b2f      	ldr	r3, [pc, #188]	; (8002950 <HAL_RCC_ClockConfig+0x238>)
 8002892:	68a1      	ldr	r1, [r4, #8]
 8002894:	699a      	ldr	r2, [r3, #24]
 8002896:	f422 6270 	bic.w	r2, r2, #3840	; 0xf00
 800289a:	430a      	orrs	r2, r1
 800289c:	619a      	str	r2, [r3, #24]
 800289e:	6861      	ldr	r1, [r4, #4]
 80028a0:	681a      	ldr	r2, [r3, #0]
 80028a2:	2902      	cmp	r1, #2
 80028a4:	d11d      	bne.n	80028e2 <HAL_RCC_ClockConfig+0x1ca>
 80028a6:	f412 3f00 	tst.w	r2, #131072	; 0x20000
 80028aa:	f43f af3a 	beq.w	8002722 <HAL_RCC_ClockConfig+0xa>
 80028ae:	691a      	ldr	r2, [r3, #16]
 80028b0:	f241 3888 	movw	r8, #5000	; 0x1388
 80028b4:	4e26      	ldr	r6, [pc, #152]	; (8002950 <HAL_RCC_ClockConfig+0x238>)
 80028b6:	f022 0207 	bic.w	r2, r2, #7
 80028ba:	430a      	orrs	r2, r1
 80028bc:	611a      	str	r2, [r3, #16]
 80028be:	f7ff fa37 	bl	8001d30 <HAL_GetTick>
 80028c2:	4607      	mov	r7, r0
 80028c4:	6933      	ldr	r3, [r6, #16]
 80028c6:	6862      	ldr	r2, [r4, #4]
 80028c8:	f003 0338 	and.w	r3, r3, #56	; 0x38
 80028cc:	ebb3 0fc2 	cmp.w	r3, r2, lsl #3
 80028d0:	f43f af6f 	beq.w	80027b2 <HAL_RCC_ClockConfig+0x9a>
 80028d4:	f7ff fa2c 	bl	8001d30 <HAL_GetTick>
 80028d8:	1bc0      	subs	r0, r0, r7
 80028da:	4540      	cmp	r0, r8
 80028dc:	d9f2      	bls.n	80028c4 <HAL_RCC_ClockConfig+0x1ac>
 80028de:	2003      	movs	r0, #3
 80028e0:	e720      	b.n	8002724 <HAL_RCC_ClockConfig+0xc>
 80028e2:	2903      	cmp	r1, #3
 80028e4:	d102      	bne.n	80028ec <HAL_RCC_ClockConfig+0x1d4>
 80028e6:	f012 7f00 	tst.w	r2, #33554432	; 0x2000000
 80028ea:	e7de      	b.n	80028aa <HAL_RCC_ClockConfig+0x192>
 80028ec:	2901      	cmp	r1, #1
 80028ee:	d102      	bne.n	80028f6 <HAL_RCC_ClockConfig+0x1de>
 80028f0:	f412 7f80 	tst.w	r2, #256	; 0x100
 80028f4:	e7d9      	b.n	80028aa <HAL_RCC_ClockConfig+0x192>
 80028f6:	f012 0f04 	tst.w	r2, #4
 80028fa:	e7d6      	b.n	80028aa <HAL_RCC_ClockConfig+0x192>
 80028fc:	4914      	ldr	r1, [pc, #80]	; (8002950 <HAL_RCC_ClockConfig+0x238>)
 80028fe:	68e6      	ldr	r6, [r4, #12]
 8002900:	6988      	ldr	r0, [r1, #24]
 8002902:	f000 000f 	and.w	r0, r0, #15
 8002906:	4286      	cmp	r6, r0
 8002908:	f4bf af57 	bcs.w	80027ba <HAL_RCC_ClockConfig+0xa2>
 800290c:	698a      	ldr	r2, [r1, #24]
 800290e:	f022 020f 	bic.w	r2, r2, #15
 8002912:	4332      	orrs	r2, r6
 8002914:	618a      	str	r2, [r1, #24]
 8002916:	e750      	b.n	80027ba <HAL_RCC_ClockConfig+0xa2>
 8002918:	680a      	ldr	r2, [r1, #0]
 800291a:	f022 020f 	bic.w	r2, r2, #15
 800291e:	432a      	orrs	r2, r5
 8002920:	600a      	str	r2, [r1, #0]
 8002922:	680a      	ldr	r2, [r1, #0]
 8002924:	f002 020f 	and.w	r2, r2, #15
 8002928:	42aa      	cmp	r2, r5
 800292a:	f47f aefa 	bne.w	8002722 <HAL_RCC_ClockConfig+0xa>
 800292e:	e74b      	b.n	80027c8 <HAL_RCC_ClockConfig+0xb0>
 8002930:	4907      	ldr	r1, [pc, #28]	; (8002950 <HAL_RCC_ClockConfig+0x238>)
 8002932:	6925      	ldr	r5, [r4, #16]
 8002934:	6988      	ldr	r0, [r1, #24]
 8002936:	f000 0070 	and.w	r0, r0, #112	; 0x70
 800293a:	4285      	cmp	r5, r0
 800293c:	f4bf af47 	bcs.w	80027ce <HAL_RCC_ClockConfig+0xb6>
 8002940:	698a      	ldr	r2, [r1, #24]
 8002942:	f022 0270 	bic.w	r2, r2, #112	; 0x70
 8002946:	432a      	orrs	r2, r5
 8002948:	618a      	str	r2, [r1, #24]
 800294a:	e740      	b.n	80027ce <HAL_RCC_ClockConfig+0xb6>
 800294c:	52002000 	.word	0x52002000
 8002950:	58024400 	.word	0x58024400
 8002954:	08003710 	.word	0x08003710
 8002958:	24000004 	.word	0x24000004
 800295c:	24000000 	.word	0x24000000
 8002960:	2400000c 	.word	0x2400000c

08002964 <RCCEx_PLL2_Config>:
 8002964:	b5f8      	push	{r3, r4, r5, r6, r7, lr}
 8002966:	4c3a      	ldr	r4, [pc, #232]	; (8002a50 <RCCEx_PLL2_Config+0xec>)
 8002968:	4606      	mov	r6, r0
 800296a:	460d      	mov	r5, r1
 800296c:	6aa3      	ldr	r3, [r4, #40]	; 0x28
 800296e:	f003 0303 	and.w	r3, r3, #3
 8002972:	2b03      	cmp	r3, #3
 8002974:	d069      	beq.n	8002a4a <RCCEx_PLL2_Config+0xe6>
 8002976:	6823      	ldr	r3, [r4, #0]
 8002978:	f023 6380 	bic.w	r3, r3, #67108864	; 0x4000000
 800297c:	6023      	str	r3, [r4, #0]
 800297e:	f7ff f9d7 	bl	8001d30 <HAL_GetTick>
 8002982:	4607      	mov	r7, r0
 8002984:	6823      	ldr	r3, [r4, #0]
 8002986:	011a      	lsls	r2, r3, #4
 8002988:	d44b      	bmi.n	8002a22 <RCCEx_PLL2_Config+0xbe>
 800298a:	6aa3      	ldr	r3, [r4, #40]	; 0x28
 800298c:	6832      	ldr	r2, [r6, #0]
 800298e:	f423 337c 	bic.w	r3, r3, #258048	; 0x3f000
 8002992:	ea43 3302 	orr.w	r3, r3, r2, lsl #12
 8002996:	62a3      	str	r3, [r4, #40]	; 0x28
 8002998:	68b3      	ldr	r3, [r6, #8]
 800299a:	68f2      	ldr	r2, [r6, #12]
 800299c:	3b01      	subs	r3, #1
 800299e:	3a01      	subs	r2, #1
 80029a0:	025b      	lsls	r3, r3, #9
 80029a2:	0412      	lsls	r2, r2, #16
 80029a4:	b29b      	uxth	r3, r3
 80029a6:	f402 02fe 	and.w	r2, r2, #8323072	; 0x7f0000
 80029aa:	4313      	orrs	r3, r2
 80029ac:	6872      	ldr	r2, [r6, #4]
 80029ae:	3a01      	subs	r2, #1
 80029b0:	f3c2 0208 	ubfx	r2, r2, #0, #9
 80029b4:	4313      	orrs	r3, r2
 80029b6:	6932      	ldr	r2, [r6, #16]
 80029b8:	3a01      	subs	r2, #1
 80029ba:	0612      	lsls	r2, r2, #24
 80029bc:	f002 42fe 	and.w	r2, r2, #2130706432	; 0x7f000000
 80029c0:	4313      	orrs	r3, r2
 80029c2:	63a3      	str	r3, [r4, #56]	; 0x38
 80029c4:	6ae3      	ldr	r3, [r4, #44]	; 0x2c
 80029c6:	6972      	ldr	r2, [r6, #20]
 80029c8:	f023 03c0 	bic.w	r3, r3, #192	; 0xc0
 80029cc:	4313      	orrs	r3, r2
 80029ce:	62e3      	str	r3, [r4, #44]	; 0x2c
 80029d0:	6ae3      	ldr	r3, [r4, #44]	; 0x2c
 80029d2:	69b2      	ldr	r2, [r6, #24]
 80029d4:	f023 0320 	bic.w	r3, r3, #32
 80029d8:	4313      	orrs	r3, r2
 80029da:	62e3      	str	r3, [r4, #44]	; 0x2c
 80029dc:	6ae3      	ldr	r3, [r4, #44]	; 0x2c
 80029de:	f023 0310 	bic.w	r3, r3, #16
 80029e2:	62e3      	str	r3, [r4, #44]	; 0x2c
 80029e4:	6be3      	ldr	r3, [r4, #60]	; 0x3c
 80029e6:	69f2      	ldr	r2, [r6, #28]
 80029e8:	f423 437f 	bic.w	r3, r3, #65280	; 0xff00
 80029ec:	f023 03f8 	bic.w	r3, r3, #248	; 0xf8
 80029f0:	ea43 03c2 	orr.w	r3, r3, r2, lsl #3
 80029f4:	63e3      	str	r3, [r4, #60]	; 0x3c
 80029f6:	6ae3      	ldr	r3, [r4, #44]	; 0x2c
 80029f8:	f043 0310 	orr.w	r3, r3, #16
 80029fc:	62e3      	str	r3, [r4, #44]	; 0x2c
 80029fe:	6ae3      	ldr	r3, [r4, #44]	; 0x2c
 8002a00:	b9b5      	cbnz	r5, 8002a30 <RCCEx_PLL2_Config+0xcc>
 8002a02:	f443 2300 	orr.w	r3, r3, #524288	; 0x80000
 8002a06:	62e3      	str	r3, [r4, #44]	; 0x2c
 8002a08:	4c11      	ldr	r4, [pc, #68]	; (8002a50 <RCCEx_PLL2_Config+0xec>)
 8002a0a:	6823      	ldr	r3, [r4, #0]
 8002a0c:	f043 6380 	orr.w	r3, r3, #67108864	; 0x4000000
 8002a10:	6023      	str	r3, [r4, #0]
 8002a12:	f7ff f98d 	bl	8001d30 <HAL_GetTick>
 8002a16:	4605      	mov	r5, r0
 8002a18:	6823      	ldr	r3, [r4, #0]
 8002a1a:	011b      	lsls	r3, r3, #4
 8002a1c:	d50f      	bpl.n	8002a3e <RCCEx_PLL2_Config+0xda>
 8002a1e:	2000      	movs	r0, #0
 8002a20:	e005      	b.n	8002a2e <RCCEx_PLL2_Config+0xca>
 8002a22:	f7ff f985 	bl	8001d30 <HAL_GetTick>
 8002a26:	1bc0      	subs	r0, r0, r7
 8002a28:	2802      	cmp	r0, #2
 8002a2a:	d9ab      	bls.n	8002984 <RCCEx_PLL2_Config+0x20>
 8002a2c:	2003      	movs	r0, #3
 8002a2e:	bdf8      	pop	{r3, r4, r5, r6, r7, pc}
 8002a30:	2d01      	cmp	r5, #1
 8002a32:	bf0c      	ite	eq
 8002a34:	f443 1380 	orreq.w	r3, r3, #1048576	; 0x100000
 8002a38:	f443 1300 	orrne.w	r3, r3, #2097152	; 0x200000
 8002a3c:	e7e3      	b.n	8002a06 <RCCEx_PLL2_Config+0xa2>
 8002a3e:	f7ff f977 	bl	8001d30 <HAL_GetTick>
 8002a42:	1b40      	subs	r0, r0, r5
 8002a44:	2802      	cmp	r0, #2
 8002a46:	d9e7      	bls.n	8002a18 <RCCEx_PLL2_Config+0xb4>
 8002a48:	e7f0      	b.n	8002a2c <RCCEx_PLL2_Config+0xc8>
 8002a4a:	2001      	movs	r0, #1
 8002a4c:	e7ef      	b.n	8002a2e <RCCEx_PLL2_Config+0xca>
 8002a4e:	bf00      	nop
 8002a50:	58024400 	.word	0x58024400

08002a54 <RCCEx_PLL3_Config>:
 8002a54:	b5f8      	push	{r3, r4, r5, r6, r7, lr}
 8002a56:	4c3a      	ldr	r4, [pc, #232]	; (8002b40 <RCCEx_PLL3_Config+0xec>)
 8002a58:	4606      	mov	r6, r0
 8002a5a:	460d      	mov	r5, r1
 8002a5c:	6aa3      	ldr	r3, [r4, #40]	; 0x28
 8002a5e:	f003 0303 	and.w	r3, r3, #3
 8002a62:	2b03      	cmp	r3, #3
 8002a64:	d069      	beq.n	8002b3a <RCCEx_PLL3_Config+0xe6>
 8002a66:	6823      	ldr	r3, [r4, #0]
 8002a68:	f023 5380 	bic.w	r3, r3, #268435456	; 0x10000000
 8002a6c:	6023      	str	r3, [r4, #0]
 8002a6e:	f7ff f95f 	bl	8001d30 <HAL_GetTick>
 8002a72:	4607      	mov	r7, r0
 8002a74:	6823      	ldr	r3, [r4, #0]
 8002a76:	009a      	lsls	r2, r3, #2
 8002a78:	d44b      	bmi.n	8002b12 <RCCEx_PLL3_Config+0xbe>
 8002a7a:	6aa3      	ldr	r3, [r4, #40]	; 0x28
 8002a7c:	6832      	ldr	r2, [r6, #0]
 8002a7e:	f023 737c 	bic.w	r3, r3, #66060288	; 0x3f00000
 8002a82:	ea43 5302 	orr.w	r3, r3, r2, lsl #20
 8002a86:	62a3      	str	r3, [r4, #40]	; 0x28
 8002a88:	68b3      	ldr	r3, [r6, #8]
 8002a8a:	68f2      	ldr	r2, [r6, #12]
 8002a8c:	3b01      	subs	r3, #1
 8002a8e:	3a01      	subs	r2, #1
 8002a90:	025b      	lsls	r3, r3, #9
 8002a92:	0412      	lsls	r2, r2, #16
 8002a94:	b29b      	uxth	r3, r3
 8002a96:	f402 02fe 	and.w	r2, r2, #8323072	; 0x7f0000
 8002a9a:	4313      	orrs	r3, r2
 8002a9c:	6872      	ldr	r2, [r6, #4]
 8002a9e:	3a01      	subs	r2, #1
 8002aa0:	f3c2 0208 	ubfx	r2, r2, #0, #9
 8002aa4:	4313      	orrs	r3, r2
 8002aa6:	6932      	ldr	r2, [r6, #16]
 8002aa8:	3a01      	subs	r2, #1
 8002aaa:	0612      	lsls	r2, r2, #24
 8002aac:	f002 42fe 	and.w	r2, r2, #2130706432	; 0x7f000000
 8002ab0:	4313      	orrs	r3, r2
 8002ab2:	6423      	str	r3, [r4, #64]	; 0x40
 8002ab4:	6ae3      	ldr	r3, [r4, #44]	; 0x2c
 8002ab6:	6972      	ldr	r2, [r6, #20]
 8002ab8:	f423 6340 	bic.w	r3, r3, #3072	; 0xc00
 8002abc:	4313      	orrs	r3, r2
 8002abe:	62e3      	str	r3, [r4, #44]	; 0x2c
 8002ac0:	6ae3      	ldr	r3, [r4, #44]	; 0x2c
 8002ac2:	69b2      	ldr	r2, [r6, #24]
 8002ac4:	f423 7300 	bic.w	r3, r3, #512	; 0x200
 8002ac8:	4313      	orrs	r3, r2
 8002aca:	62e3      	str	r3, [r4, #44]	; 0x2c
 8002acc:	6ae3      	ldr	r3, [r4, #44]	; 0x2c
 8002ace:	f423 7380 	bic.w	r3, r3, #256	; 0x100
 8002ad2:	62e3      	str	r3, [r4, #44]	; 0x2c
 8002ad4:	6c63      	ldr	r3, [r4, #68]	; 0x44
 8002ad6:	69f2      	ldr	r2, [r6, #28]
 8002ad8:	f423 437f 	bic.w	r3, r3, #65280	; 0xff00
 8002adc:	f023 03f8 	bic.w	r3, r3, #248	; 0xf8
 8002ae0:	ea43 03c2 	orr.w	r3, r3, r2, lsl #3
 8002ae4:	6463      	str	r3, [r4, #68]	; 0x44
 8002ae6:	6ae3      	ldr	r3, [r4, #44]	; 0x2c
 8002ae8:	f443 7380 	orr.w	r3, r3, #256	; 0x100
 8002aec:	62e3      	str	r3, [r4, #44]	; 0x2c
 8002aee:	6ae3      	ldr	r3, [r4, #44]	; 0x2c
 8002af0:	b9b5      	cbnz	r5, 8002b20 <RCCEx_PLL3_Config+0xcc>
 8002af2:	f443 0380 	orr.w	r3, r3, #4194304	; 0x400000
 8002af6:	62e3      	str	r3, [r4, #44]	; 0x2c
 8002af8:	4c11      	ldr	r4, [pc, #68]	; (8002b40 <RCCEx_PLL3_Config+0xec>)
 8002afa:	6823      	ldr	r3, [r4, #0]
 8002afc:	f043 5380 	orr.w	r3, r3, #268435456	; 0x10000000
 8002b00:	6023      	str	r3, [r4, #0]
 8002b02:	f7ff f915 	bl	8001d30 <HAL_GetTick>
 8002b06:	4605      	mov	r5, r0
 8002b08:	6823      	ldr	r3, [r4, #0]
 8002b0a:	009b      	lsls	r3, r3, #2
 8002b0c:	d50f      	bpl.n	8002b2e <RCCEx_PLL3_Config+0xda>
 8002b0e:	2000      	movs	r0, #0
 8002b10:	e005      	b.n	8002b1e <RCCEx_PLL3_Config+0xca>
 8002b12:	f7ff f90d 	bl	8001d30 <HAL_GetTick>
 8002b16:	1bc0      	subs	r0, r0, r7
 8002b18:	2802      	cmp	r0, #2
 8002b1a:	d9ab      	bls.n	8002a74 <RCCEx_PLL3_Config+0x20>
 8002b1c:	2003      	movs	r0, #3
 8002b1e:	bdf8      	pop	{r3, r4, r5, r6, r7, pc}
 8002b20:	2d01      	cmp	r5, #1
 8002b22:	bf0c      	ite	eq
 8002b24:	f443 0300 	orreq.w	r3, r3, #8388608	; 0x800000
 8002b28:	f043 7380 	orrne.w	r3, r3, #16777216	; 0x1000000
 8002b2c:	e7e3      	b.n	8002af6 <RCCEx_PLL3_Config+0xa2>
 8002b2e:	f7ff f8ff 	bl	8001d30 <HAL_GetTick>
 8002b32:	1b40      	subs	r0, r0, r5
 8002b34:	2802      	cmp	r0, #2
 8002b36:	d9e7      	bls.n	8002b08 <RCCEx_PLL3_Config+0xb4>
 8002b38:	e7f0      	b.n	8002b1c <RCCEx_PLL3_Config+0xc8>
 8002b3a:	2001      	movs	r0, #1
 8002b3c:	e7ef      	b.n	8002b1e <RCCEx_PLL3_Config+0xca>
 8002b3e:	bf00      	nop
 8002b40:	58024400 	.word	0x58024400

08002b44 <HAL_RCCEx_PeriphCLKConfig>:
 8002b44:	e92d 43f8 	stmdb	sp!, {r3, r4, r5, r6, r7, r8, r9, lr}
 8002b48:	6806      	ldr	r6, [r0, #0]
 8002b4a:	4604      	mov	r4, r0
 8002b4c:	f016 6600 	ands.w	r6, r6, #134217728	; 0x8000000
 8002b50:	d023      	beq.n	8002b9a <HAL_RCCEx_PeriphCLKConfig+0x56>
 8002b52:	6e43      	ldr	r3, [r0, #100]	; 0x64
 8002b54:	f5b3 1f80 	cmp.w	r3, #1048576	; 0x100000
 8002b58:	d018      	beq.n	8002b8c <HAL_RCCEx_PeriphCLKConfig+0x48>
 8002b5a:	d802      	bhi.n	8002b62 <HAL_RCCEx_PeriphCLKConfig+0x1e>
 8002b5c:	b183      	cbz	r3, 8002b80 <HAL_RCCEx_PeriphCLKConfig+0x3c>
 8002b5e:	2601      	movs	r6, #1
 8002b60:	e01b      	b.n	8002b9a <HAL_RCCEx_PeriphCLKConfig+0x56>
 8002b62:	f5b3 1f00 	cmp.w	r3, #2097152	; 0x200000
 8002b66:	d023      	beq.n	8002bb0 <HAL_RCCEx_PeriphCLKConfig+0x6c>
 8002b68:	f5b3 1f40 	cmp.w	r3, #3145728	; 0x300000
 8002b6c:	d1f7      	bne.n	8002b5e <HAL_RCCEx_PeriphCLKConfig+0x1a>
 8002b6e:	4a9f      	ldr	r2, [pc, #636]	; (8002dec <HAL_RCCEx_PeriphCLKConfig+0x2a8>)
 8002b70:	2600      	movs	r6, #0
 8002b72:	6e61      	ldr	r1, [r4, #100]	; 0x64
 8002b74:	6d13      	ldr	r3, [r2, #80]	; 0x50
 8002b76:	f423 1340 	bic.w	r3, r3, #3145728	; 0x300000
 8002b7a:	430b      	orrs	r3, r1
 8002b7c:	6513      	str	r3, [r2, #80]	; 0x50
 8002b7e:	e00c      	b.n	8002b9a <HAL_RCCEx_PeriphCLKConfig+0x56>
 8002b80:	4a9a      	ldr	r2, [pc, #616]	; (8002dec <HAL_RCCEx_PeriphCLKConfig+0x2a8>)
 8002b82:	6ad3      	ldr	r3, [r2, #44]	; 0x2c
 8002b84:	f443 3300 	orr.w	r3, r3, #131072	; 0x20000
 8002b88:	62d3      	str	r3, [r2, #44]	; 0x2c
 8002b8a:	e7f0      	b.n	8002b6e <HAL_RCCEx_PeriphCLKConfig+0x2a>
 8002b8c:	2102      	movs	r1, #2
 8002b8e:	3004      	adds	r0, #4
 8002b90:	f7ff fee8 	bl	8002964 <RCCEx_PLL2_Config>
 8002b94:	4606      	mov	r6, r0
 8002b96:	2800      	cmp	r0, #0
 8002b98:	d0e9      	beq.n	8002b6e <HAL_RCCEx_PeriphCLKConfig+0x2a>
 8002b9a:	6823      	ldr	r3, [r4, #0]
 8002b9c:	05dd      	lsls	r5, r3, #23
 8002b9e:	d534      	bpl.n	8002c0a <HAL_RCCEx_PeriphCLKConfig+0xc6>
 8002ba0:	6d63      	ldr	r3, [r4, #84]	; 0x54
 8002ba2:	2b04      	cmp	r3, #4
 8002ba4:	d830      	bhi.n	8002c08 <HAL_RCCEx_PeriphCLKConfig+0xc4>
 8002ba6:	e8df f003 	tbb	[pc, r3]
 8002baa:	0f08      	.short	0x0f08
 8002bac:	0d29      	.short	0x0d29
 8002bae:	0d          	.byte	0x0d
 8002baf:	00          	.byte	0x00
 8002bb0:	2102      	movs	r1, #2
 8002bb2:	3024      	adds	r0, #36	; 0x24
 8002bb4:	f7ff ff4e 	bl	8002a54 <RCCEx_PLL3_Config>
 8002bb8:	e7ec      	b.n	8002b94 <HAL_RCCEx_PeriphCLKConfig+0x50>
 8002bba:	4a8c      	ldr	r2, [pc, #560]	; (8002dec <HAL_RCCEx_PeriphCLKConfig+0x2a8>)
 8002bbc:	6ad3      	ldr	r3, [r2, #44]	; 0x2c
 8002bbe:	f443 3300 	orr.w	r3, r3, #131072	; 0x20000
 8002bc2:	62d3      	str	r3, [r2, #44]	; 0x2c
 8002bc4:	4635      	mov	r5, r6
 8002bc6:	e004      	b.n	8002bd2 <HAL_RCCEx_PeriphCLKConfig+0x8e>
 8002bc8:	2100      	movs	r1, #0
 8002bca:	1d20      	adds	r0, r4, #4
 8002bcc:	f7ff feca 	bl	8002964 <RCCEx_PLL2_Config>
 8002bd0:	4605      	mov	r5, r0
 8002bd2:	b9e5      	cbnz	r5, 8002c0e <HAL_RCCEx_PeriphCLKConfig+0xca>
 8002bd4:	4a85      	ldr	r2, [pc, #532]	; (8002dec <HAL_RCCEx_PeriphCLKConfig+0x2a8>)
 8002bd6:	6d61      	ldr	r1, [r4, #84]	; 0x54
 8002bd8:	6d13      	ldr	r3, [r2, #80]	; 0x50
 8002bda:	f023 0307 	bic.w	r3, r3, #7
 8002bde:	430b      	orrs	r3, r1
 8002be0:	6513      	str	r3, [r2, #80]	; 0x50
 8002be2:	6823      	ldr	r3, [r4, #0]
 8002be4:	0598      	lsls	r0, r3, #22
 8002be6:	d521      	bpl.n	8002c2c <HAL_RCCEx_PeriphCLKConfig+0xe8>
 8002be8:	6da3      	ldr	r3, [r4, #88]	; 0x58
 8002bea:	2b80      	cmp	r3, #128	; 0x80
 8002bec:	d03b      	beq.n	8002c66 <HAL_RCCEx_PeriphCLKConfig+0x122>
 8002bee:	d810      	bhi.n	8002c12 <HAL_RCCEx_PeriphCLKConfig+0xce>
 8002bf0:	b36b      	cbz	r3, 8002c4e <HAL_RCCEx_PeriphCLKConfig+0x10a>
 8002bf2:	2b40      	cmp	r3, #64	; 0x40
 8002bf4:	d031      	beq.n	8002c5a <HAL_RCCEx_PeriphCLKConfig+0x116>
 8002bf6:	2601      	movs	r6, #1
 8002bf8:	4635      	mov	r5, r6
 8002bfa:	e017      	b.n	8002c2c <HAL_RCCEx_PeriphCLKConfig+0xe8>
 8002bfc:	2100      	movs	r1, #0
 8002bfe:	f104 0024 	add.w	r0, r4, #36	; 0x24
 8002c02:	f7ff ff27 	bl	8002a54 <RCCEx_PLL3_Config>
 8002c06:	e7e3      	b.n	8002bd0 <HAL_RCCEx_PeriphCLKConfig+0x8c>
 8002c08:	2601      	movs	r6, #1
 8002c0a:	4635      	mov	r5, r6
 8002c0c:	e7e9      	b.n	8002be2 <HAL_RCCEx_PeriphCLKConfig+0x9e>
 8002c0e:	462e      	mov	r6, r5
 8002c10:	e7e7      	b.n	8002be2 <HAL_RCCEx_PeriphCLKConfig+0x9e>
 8002c12:	2bc0      	cmp	r3, #192	; 0xc0
 8002c14:	d002      	beq.n	8002c1c <HAL_RCCEx_PeriphCLKConfig+0xd8>
 8002c16:	f5b3 7f80 	cmp.w	r3, #256	; 0x100
 8002c1a:	d1ec      	bne.n	8002bf6 <HAL_RCCEx_PeriphCLKConfig+0xb2>
 8002c1c:	bb4d      	cbnz	r5, 8002c72 <HAL_RCCEx_PeriphCLKConfig+0x12e>
 8002c1e:	4a73      	ldr	r2, [pc, #460]	; (8002dec <HAL_RCCEx_PeriphCLKConfig+0x2a8>)
 8002c20:	6da1      	ldr	r1, [r4, #88]	; 0x58
 8002c22:	6d13      	ldr	r3, [r2, #80]	; 0x50
 8002c24:	f423 73e0 	bic.w	r3, r3, #448	; 0x1c0
 8002c28:	430b      	orrs	r3, r1
 8002c2a:	6513      	str	r3, [r2, #80]	; 0x50
 8002c2c:	6823      	ldr	r3, [r4, #0]
 8002c2e:	0559      	lsls	r1, r3, #21
 8002c30:	d530      	bpl.n	8002c94 <HAL_RCCEx_PeriphCLKConfig+0x150>
 8002c32:	f8d4 30a4 	ldr.w	r3, [r4, #164]	; 0xa4
 8002c36:	f5b3 0f80 	cmp.w	r3, #4194304	; 0x400000
 8002c3a:	d047      	beq.n	8002ccc <HAL_RCCEx_PeriphCLKConfig+0x188>
 8002c3c:	d81b      	bhi.n	8002c76 <HAL_RCCEx_PeriphCLKConfig+0x132>
 8002c3e:	2b00      	cmp	r3, #0
 8002c40:	d038      	beq.n	8002cb4 <HAL_RCCEx_PeriphCLKConfig+0x170>
 8002c42:	f5b3 1f00 	cmp.w	r3, #2097152	; 0x200000
 8002c46:	d03b      	beq.n	8002cc0 <HAL_RCCEx_PeriphCLKConfig+0x17c>
 8002c48:	2601      	movs	r6, #1
 8002c4a:	4635      	mov	r5, r6
 8002c4c:	e022      	b.n	8002c94 <HAL_RCCEx_PeriphCLKConfig+0x150>
 8002c4e:	4a67      	ldr	r2, [pc, #412]	; (8002dec <HAL_RCCEx_PeriphCLKConfig+0x2a8>)
 8002c50:	6ad3      	ldr	r3, [r2, #44]	; 0x2c
 8002c52:	f443 3300 	orr.w	r3, r3, #131072	; 0x20000
 8002c56:	62d3      	str	r3, [r2, #44]	; 0x2c
 8002c58:	e7e0      	b.n	8002c1c <HAL_RCCEx_PeriphCLKConfig+0xd8>
 8002c5a:	2100      	movs	r1, #0
 8002c5c:	1d20      	adds	r0, r4, #4
 8002c5e:	f7ff fe81 	bl	8002964 <RCCEx_PLL2_Config>
 8002c62:	4605      	mov	r5, r0
 8002c64:	e7da      	b.n	8002c1c <HAL_RCCEx_PeriphCLKConfig+0xd8>
 8002c66:	2100      	movs	r1, #0
 8002c68:	f104 0024 	add.w	r0, r4, #36	; 0x24
 8002c6c:	f7ff fef2 	bl	8002a54 <RCCEx_PLL3_Config>
 8002c70:	e7f7      	b.n	8002c62 <HAL_RCCEx_PeriphCLKConfig+0x11e>
 8002c72:	462e      	mov	r6, r5
 8002c74:	e7da      	b.n	8002c2c <HAL_RCCEx_PeriphCLKConfig+0xe8>
 8002c76:	f5b3 0fc0 	cmp.w	r3, #6291456	; 0x600000
 8002c7a:	d002      	beq.n	8002c82 <HAL_RCCEx_PeriphCLKConfig+0x13e>
 8002c7c:	f5b3 0f00 	cmp.w	r3, #8388608	; 0x800000
 8002c80:	d1e2      	bne.n	8002c48 <HAL_RCCEx_PeriphCLKConfig+0x104>
 8002c82:	bb4d      	cbnz	r5, 8002cd8 <HAL_RCCEx_PeriphCLKConfig+0x194>
 8002c84:	4a59      	ldr	r2, [pc, #356]	; (8002dec <HAL_RCCEx_PeriphCLKConfig+0x2a8>)
 8002c86:	f8d4 10a4 	ldr.w	r1, [r4, #164]	; 0xa4
 8002c8a:	6d93      	ldr	r3, [r2, #88]	; 0x58
 8002c8c:	f423 0360 	bic.w	r3, r3, #14680064	; 0xe00000
 8002c90:	430b      	orrs	r3, r1
 8002c92:	6593      	str	r3, [r2, #88]	; 0x58
 8002c94:	6823      	ldr	r3, [r4, #0]
 8002c96:	051a      	lsls	r2, r3, #20
 8002c98:	d52f      	bpl.n	8002cfa <HAL_RCCEx_PeriphCLKConfig+0x1b6>
 8002c9a:	f8d4 30a8 	ldr.w	r3, [r4, #168]	; 0xa8
 8002c9e:	f1b3 7f00 	cmp.w	r3, #33554432	; 0x2000000
 8002ca2:	d041      	beq.n	8002d28 <HAL_RCCEx_PeriphCLKConfig+0x1e4>
 8002ca4:	d81a      	bhi.n	8002cdc <HAL_RCCEx_PeriphCLKConfig+0x198>
 8002ca6:	b39b      	cbz	r3, 8002d10 <HAL_RCCEx_PeriphCLKConfig+0x1cc>
 8002ca8:	f1b3 7f80 	cmp.w	r3, #16777216	; 0x1000000
 8002cac:	d036      	beq.n	8002d1c <HAL_RCCEx_PeriphCLKConfig+0x1d8>
 8002cae:	2601      	movs	r6, #1
 8002cb0:	4635      	mov	r5, r6
 8002cb2:	e022      	b.n	8002cfa <HAL_RCCEx_PeriphCLKConfig+0x1b6>
 8002cb4:	4a4d      	ldr	r2, [pc, #308]	; (8002dec <HAL_RCCEx_PeriphCLKConfig+0x2a8>)
 8002cb6:	6ad3      	ldr	r3, [r2, #44]	; 0x2c
 8002cb8:	f443 3300 	orr.w	r3, r3, #131072	; 0x20000
 8002cbc:	62d3      	str	r3, [r2, #44]	; 0x2c
 8002cbe:	e7e0      	b.n	8002c82 <HAL_RCCEx_PeriphCLKConfig+0x13e>
 8002cc0:	2100      	movs	r1, #0
 8002cc2:	1d20      	adds	r0, r4, #4
 8002cc4:	f7ff fe4e 	bl	8002964 <RCCEx_PLL2_Config>
 8002cc8:	4605      	mov	r5, r0
 8002cca:	e7da      	b.n	8002c82 <HAL_RCCEx_PeriphCLKConfig+0x13e>
 8002ccc:	2100      	movs	r1, #0
 8002cce:	f104 0024 	add.w	r0, r4, #36	; 0x24
 8002cd2:	f7ff febf 	bl	8002a54 <RCCEx_PLL3_Config>
 8002cd6:	e7f7      	b.n	8002cc8 <HAL_RCCEx_PeriphCLKConfig+0x184>
 8002cd8:	462e      	mov	r6, r5
 8002cda:	e7db      	b.n	8002c94 <HAL_RCCEx_PeriphCLKConfig+0x150>
 8002cdc:	f1b3 7f40 	cmp.w	r3, #50331648	; 0x3000000
 8002ce0:	d002      	beq.n	8002ce8 <HAL_RCCEx_PeriphCLKConfig+0x1a4>
 8002ce2:	f1b3 6f80 	cmp.w	r3, #67108864	; 0x4000000
 8002ce6:	d1e2      	bne.n	8002cae <HAL_RCCEx_PeriphCLKConfig+0x16a>
 8002ce8:	bb25      	cbnz	r5, 8002d34 <HAL_RCCEx_PeriphCLKConfig+0x1f0>
 8002cea:	4a40      	ldr	r2, [pc, #256]	; (8002dec <HAL_RCCEx_PeriphCLKConfig+0x2a8>)
 8002cec:	f8d4 10a8 	ldr.w	r1, [r4, #168]	; 0xa8
 8002cf0:	6d93      	ldr	r3, [r2, #88]	; 0x58
 8002cf2:	f023 63e0 	bic.w	r3, r3, #117440512	; 0x7000000
 8002cf6:	430b      	orrs	r3, r1
 8002cf8:	6593      	str	r3, [r2, #88]	; 0x58
 8002cfa:	6823      	ldr	r3, [r4, #0]
 8002cfc:	019b      	lsls	r3, r3, #6
 8002cfe:	d527      	bpl.n	8002d50 <HAL_RCCEx_PeriphCLKConfig+0x20c>
 8002d00:	6ca3      	ldr	r3, [r4, #72]	; 0x48
 8002d02:	2b10      	cmp	r3, #16
 8002d04:	d033      	beq.n	8002d6e <HAL_RCCEx_PeriphCLKConfig+0x22a>
 8002d06:	d817      	bhi.n	8002d38 <HAL_RCCEx_PeriphCLKConfig+0x1f4>
 8002d08:	b1d3      	cbz	r3, 8002d40 <HAL_RCCEx_PeriphCLKConfig+0x1fc>
 8002d0a:	2601      	movs	r6, #1
 8002d0c:	4635      	mov	r5, r6
 8002d0e:	e01f      	b.n	8002d50 <HAL_RCCEx_PeriphCLKConfig+0x20c>
 8002d10:	4a36      	ldr	r2, [pc, #216]	; (8002dec <HAL_RCCEx_PeriphCLKConfig+0x2a8>)
 8002d12:	6ad3      	ldr	r3, [r2, #44]	; 0x2c
 8002d14:	f443 3300 	orr.w	r3, r3, #131072	; 0x20000
 8002d18:	62d3      	str	r3, [r2, #44]	; 0x2c
 8002d1a:	e7e5      	b.n	8002ce8 <HAL_RCCEx_PeriphCLKConfig+0x1a4>
 8002d1c:	2100      	movs	r1, #0
 8002d1e:	1d20      	adds	r0, r4, #4
 8002d20:	f7ff fe20 	bl	8002964 <RCCEx_PLL2_Config>
 8002d24:	4605      	mov	r5, r0
 8002d26:	e7df      	b.n	8002ce8 <HAL_RCCEx_PeriphCLKConfig+0x1a4>
 8002d28:	2100      	movs	r1, #0
 8002d2a:	f104 0024 	add.w	r0, r4, #36	; 0x24
 8002d2e:	f7ff fe91 	bl	8002a54 <RCCEx_PLL3_Config>
 8002d32:	e7f7      	b.n	8002d24 <HAL_RCCEx_PeriphCLKConfig+0x1e0>
 8002d34:	462e      	mov	r6, r5
 8002d36:	e7e0      	b.n	8002cfa <HAL_RCCEx_PeriphCLKConfig+0x1b6>
 8002d38:	2b20      	cmp	r3, #32
 8002d3a:	d01e      	beq.n	8002d7a <HAL_RCCEx_PeriphCLKConfig+0x236>
 8002d3c:	2b30      	cmp	r3, #48	; 0x30
 8002d3e:	d1e4      	bne.n	8002d0a <HAL_RCCEx_PeriphCLKConfig+0x1c6>
 8002d40:	bb0d      	cbnz	r5, 8002d86 <HAL_RCCEx_PeriphCLKConfig+0x242>
 8002d42:	4a2a      	ldr	r2, [pc, #168]	; (8002dec <HAL_RCCEx_PeriphCLKConfig+0x2a8>)
 8002d44:	6ca1      	ldr	r1, [r4, #72]	; 0x48
 8002d46:	6cd3      	ldr	r3, [r2, #76]	; 0x4c
 8002d48:	f023 0330 	bic.w	r3, r3, #48	; 0x30
 8002d4c:	430b      	orrs	r3, r1
 8002d4e:	64d3      	str	r3, [r2, #76]	; 0x4c
 8002d50:	6823      	ldr	r3, [r4, #0]
 8002d52:	04df      	lsls	r7, r3, #19
 8002d54:	d527      	bpl.n	8002da6 <HAL_RCCEx_PeriphCLKConfig+0x262>
 8002d56:	6de3      	ldr	r3, [r4, #92]	; 0x5c
 8002d58:	f5b3 5f00 	cmp.w	r3, #8192	; 0x2000
 8002d5c:	d03e      	beq.n	8002ddc <HAL_RCCEx_PeriphCLKConfig+0x298>
 8002d5e:	d814      	bhi.n	8002d8a <HAL_RCCEx_PeriphCLKConfig+0x246>
 8002d60:	b383      	cbz	r3, 8002dc4 <HAL_RCCEx_PeriphCLKConfig+0x280>
 8002d62:	f5b3 5f80 	cmp.w	r3, #4096	; 0x1000
 8002d66:	d033      	beq.n	8002dd0 <HAL_RCCEx_PeriphCLKConfig+0x28c>
 8002d68:	2601      	movs	r6, #1
 8002d6a:	4635      	mov	r5, r6
 8002d6c:	e01b      	b.n	8002da6 <HAL_RCCEx_PeriphCLKConfig+0x262>
 8002d6e:	4a1f      	ldr	r2, [pc, #124]	; (8002dec <HAL_RCCEx_PeriphCLKConfig+0x2a8>)
 8002d70:	6ad3      	ldr	r3, [r2, #44]	; 0x2c
 8002d72:	f443 3300 	orr.w	r3, r3, #131072	; 0x20000
 8002d76:	62d3      	str	r3, [r2, #44]	; 0x2c
 8002d78:	e7e2      	b.n	8002d40 <HAL_RCCEx_PeriphCLKConfig+0x1fc>
 8002d7a:	2102      	movs	r1, #2
 8002d7c:	1d20      	adds	r0, r4, #4
 8002d7e:	f7ff fdf1 	bl	8002964 <RCCEx_PLL2_Config>
 8002d82:	4605      	mov	r5, r0
 8002d84:	e7dc      	b.n	8002d40 <HAL_RCCEx_PeriphCLKConfig+0x1fc>
 8002d86:	462e      	mov	r6, r5
 8002d88:	e7e2      	b.n	8002d50 <HAL_RCCEx_PeriphCLKConfig+0x20c>
 8002d8a:	f5b3 5f40 	cmp.w	r3, #12288	; 0x3000
 8002d8e:	d002      	beq.n	8002d96 <HAL_RCCEx_PeriphCLKConfig+0x252>
 8002d90:	f5b3 4f80 	cmp.w	r3, #16384	; 0x4000
 8002d94:	d1e8      	bne.n	8002d68 <HAL_RCCEx_PeriphCLKConfig+0x224>
 8002d96:	bb3d      	cbnz	r5, 8002de8 <HAL_RCCEx_PeriphCLKConfig+0x2a4>
 8002d98:	4a14      	ldr	r2, [pc, #80]	; (8002dec <HAL_RCCEx_PeriphCLKConfig+0x2a8>)
 8002d9a:	6de1      	ldr	r1, [r4, #92]	; 0x5c
 8002d9c:	6d13      	ldr	r3, [r2, #80]	; 0x50
 8002d9e:	f423 43e0 	bic.w	r3, r3, #28672	; 0x7000
 8002da2:	430b      	orrs	r3, r1
 8002da4:	6513      	str	r3, [r2, #80]	; 0x50
 8002da6:	6823      	ldr	r3, [r4, #0]
 8002da8:	0498      	lsls	r0, r3, #18
 8002daa:	d532      	bpl.n	8002e12 <HAL_RCCEx_PeriphCLKConfig+0x2ce>
 8002dac:	6e23      	ldr	r3, [r4, #96]	; 0x60
 8002dae:	f5b3 3f00 	cmp.w	r3, #131072	; 0x20000
 8002db2:	d044      	beq.n	8002e3e <HAL_RCCEx_PeriphCLKConfig+0x2fa>
 8002db4:	d81c      	bhi.n	8002df0 <HAL_RCCEx_PeriphCLKConfig+0x2ac>
 8002db6:	b323      	cbz	r3, 8002e02 <HAL_RCCEx_PeriphCLKConfig+0x2be>
 8002db8:	f5b3 3f80 	cmp.w	r3, #65536	; 0x10000
 8002dbc:	d039      	beq.n	8002e32 <HAL_RCCEx_PeriphCLKConfig+0x2ee>
 8002dbe:	2601      	movs	r6, #1
 8002dc0:	4635      	mov	r5, r6
 8002dc2:	e026      	b.n	8002e12 <HAL_RCCEx_PeriphCLKConfig+0x2ce>
 8002dc4:	4a09      	ldr	r2, [pc, #36]	; (8002dec <HAL_RCCEx_PeriphCLKConfig+0x2a8>)
 8002dc6:	6ad3      	ldr	r3, [r2, #44]	; 0x2c
 8002dc8:	f443 3300 	orr.w	r3, r3, #131072	; 0x20000
 8002dcc:	62d3      	str	r3, [r2, #44]	; 0x2c
 8002dce:	e7e2      	b.n	8002d96 <HAL_RCCEx_PeriphCLKConfig+0x252>
 8002dd0:	2100      	movs	r1, #0
 8002dd2:	1d20      	adds	r0, r4, #4
 8002dd4:	f7ff fdc6 	bl	8002964 <RCCEx_PLL2_Config>
 8002dd8:	4605      	mov	r5, r0
 8002dda:	e7dc      	b.n	8002d96 <HAL_RCCEx_PeriphCLKConfig+0x252>
 8002ddc:	2100      	movs	r1, #0
 8002dde:	f104 0024 	add.w	r0, r4, #36	; 0x24
 8002de2:	f7ff fe37 	bl	8002a54 <RCCEx_PLL3_Config>
 8002de6:	e7f7      	b.n	8002dd8 <HAL_RCCEx_PeriphCLKConfig+0x294>
 8002de8:	462e      	mov	r6, r5
 8002dea:	e7dc      	b.n	8002da6 <HAL_RCCEx_PeriphCLKConfig+0x262>
 8002dec:	58024400 	.word	0x58024400
 8002df0:	f5b3 2f80 	cmp.w	r3, #262144	; 0x40000
 8002df4:	d005      	beq.n	8002e02 <HAL_RCCEx_PeriphCLKConfig+0x2be>
 8002df6:	f5b3 2fa0 	cmp.w	r3, #327680	; 0x50000
 8002dfa:	d002      	beq.n	8002e02 <HAL_RCCEx_PeriphCLKConfig+0x2be>
 8002dfc:	f5b3 3f40 	cmp.w	r3, #196608	; 0x30000
 8002e00:	d1dd      	bne.n	8002dbe <HAL_RCCEx_PeriphCLKConfig+0x27a>
 8002e02:	bb15      	cbnz	r5, 8002e4a <HAL_RCCEx_PeriphCLKConfig+0x306>
 8002e04:	4aa0      	ldr	r2, [pc, #640]	; (8003088 <HAL_RCCEx_PeriphCLKConfig+0x544>)
 8002e06:	6e21      	ldr	r1, [r4, #96]	; 0x60
 8002e08:	6d13      	ldr	r3, [r2, #80]	; 0x50
 8002e0a:	f423 23e0 	bic.w	r3, r3, #458752	; 0x70000
 8002e0e:	430b      	orrs	r3, r1
 8002e10:	6513      	str	r3, [r2, #80]	; 0x50
 8002e12:	6823      	ldr	r3, [r4, #0]
 8002e14:	0459      	lsls	r1, r3, #17
 8002e16:	d52d      	bpl.n	8002e74 <HAL_RCCEx_PeriphCLKConfig+0x330>
 8002e18:	f8d4 30ac 	ldr.w	r3, [r4, #172]	; 0xac
 8002e1c:	f1b3 5f00 	cmp.w	r3, #536870912	; 0x20000000
 8002e20:	d04b      	beq.n	8002eba <HAL_RCCEx_PeriphCLKConfig+0x376>
 8002e22:	d814      	bhi.n	8002e4e <HAL_RCCEx_PeriphCLKConfig+0x30a>
 8002e24:	b1e3      	cbz	r3, 8002e60 <HAL_RCCEx_PeriphCLKConfig+0x31c>
 8002e26:	f1b3 5f80 	cmp.w	r3, #268435456	; 0x10000000
 8002e2a:	d040      	beq.n	8002eae <HAL_RCCEx_PeriphCLKConfig+0x36a>
 8002e2c:	2601      	movs	r6, #1
 8002e2e:	4635      	mov	r5, r6
 8002e30:	e020      	b.n	8002e74 <HAL_RCCEx_PeriphCLKConfig+0x330>
 8002e32:	2101      	movs	r1, #1
 8002e34:	1d20      	adds	r0, r4, #4
 8002e36:	f7ff fd95 	bl	8002964 <RCCEx_PLL2_Config>
 8002e3a:	4605      	mov	r5, r0
 8002e3c:	e7e1      	b.n	8002e02 <HAL_RCCEx_PeriphCLKConfig+0x2be>
 8002e3e:	2101      	movs	r1, #1
 8002e40:	f104 0024 	add.w	r0, r4, #36	; 0x24
 8002e44:	f7ff fe06 	bl	8002a54 <RCCEx_PLL3_Config>
 8002e48:	e7f7      	b.n	8002e3a <HAL_RCCEx_PeriphCLKConfig+0x2f6>
 8002e4a:	462e      	mov	r6, r5
 8002e4c:	e7e1      	b.n	8002e12 <HAL_RCCEx_PeriphCLKConfig+0x2ce>
 8002e4e:	f1b3 4f80 	cmp.w	r3, #1073741824	; 0x40000000
 8002e52:	d005      	beq.n	8002e60 <HAL_RCCEx_PeriphCLKConfig+0x31c>
 8002e54:	f1b3 4fa0 	cmp.w	r3, #1342177280	; 0x50000000
 8002e58:	d002      	beq.n	8002e60 <HAL_RCCEx_PeriphCLKConfig+0x31c>
 8002e5a:	f1b3 5f40 	cmp.w	r3, #805306368	; 0x30000000
 8002e5e:	d1e5      	bne.n	8002e2c <HAL_RCCEx_PeriphCLKConfig+0x2e8>
 8002e60:	2d00      	cmp	r5, #0
 8002e62:	d130      	bne.n	8002ec6 <HAL_RCCEx_PeriphCLKConfig+0x382>
 8002e64:	4a88      	ldr	r2, [pc, #544]	; (8003088 <HAL_RCCEx_PeriphCLKConfig+0x544>)
 8002e66:	f8d4 10ac 	ldr.w	r1, [r4, #172]	; 0xac
 8002e6a:	6d93      	ldr	r3, [r2, #88]	; 0x58
 8002e6c:	f023 43e0 	bic.w	r3, r3, #1879048192	; 0x70000000
 8002e70:	430b      	orrs	r3, r1
 8002e72:	6593      	str	r3, [r2, #88]	; 0x58
 8002e74:	6823      	ldr	r3, [r4, #0]
 8002e76:	041a      	lsls	r2, r3, #16
 8002e78:	d50f      	bpl.n	8002e9a <HAL_RCCEx_PeriphCLKConfig+0x356>
 8002e7a:	6ee3      	ldr	r3, [r4, #108]	; 0x6c
 8002e7c:	f1b3 5f80 	cmp.w	r3, #268435456	; 0x10000000
 8002e80:	d023      	beq.n	8002eca <HAL_RCCEx_PeriphCLKConfig+0x386>
 8002e82:	f1b3 5f00 	cmp.w	r3, #536870912	; 0x20000000
 8002e86:	d026      	beq.n	8002ed6 <HAL_RCCEx_PeriphCLKConfig+0x392>
 8002e88:	bb5b      	cbnz	r3, 8002ee2 <HAL_RCCEx_PeriphCLKConfig+0x39e>
 8002e8a:	bb6d      	cbnz	r5, 8002ee8 <HAL_RCCEx_PeriphCLKConfig+0x3a4>
 8002e8c:	4a7e      	ldr	r2, [pc, #504]	; (8003088 <HAL_RCCEx_PeriphCLKConfig+0x544>)
 8002e8e:	6ee1      	ldr	r1, [r4, #108]	; 0x6c
 8002e90:	6d13      	ldr	r3, [r2, #80]	; 0x50
 8002e92:	f023 5340 	bic.w	r3, r3, #805306368	; 0x30000000
 8002e96:	430b      	orrs	r3, r1
 8002e98:	6513      	str	r3, [r2, #80]	; 0x50
 8002e9a:	6823      	ldr	r3, [r4, #0]
 8002e9c:	01db      	lsls	r3, r3, #7
 8002e9e:	d533      	bpl.n	8002f08 <HAL_RCCEx_PeriphCLKConfig+0x3c4>
 8002ea0:	6c63      	ldr	r3, [r4, #68]	; 0x44
 8002ea2:	2b03      	cmp	r3, #3
 8002ea4:	d874      	bhi.n	8002f90 <HAL_RCCEx_PeriphCLKConfig+0x44c>
 8002ea6:	e8df f003 	tbb	[pc, r3]
 8002eaa:	2126      	.short	0x2126
 8002eac:	266d      	.short	0x266d
 8002eae:	2101      	movs	r1, #1
 8002eb0:	1d20      	adds	r0, r4, #4
 8002eb2:	f7ff fd57 	bl	8002964 <RCCEx_PLL2_Config>
 8002eb6:	4605      	mov	r5, r0
 8002eb8:	e7d2      	b.n	8002e60 <HAL_RCCEx_PeriphCLKConfig+0x31c>
 8002eba:	2101      	movs	r1, #1
 8002ebc:	f104 0024 	add.w	r0, r4, #36	; 0x24
 8002ec0:	f7ff fdc8 	bl	8002a54 <RCCEx_PLL3_Config>
 8002ec4:	e7f7      	b.n	8002eb6 <HAL_RCCEx_PeriphCLKConfig+0x372>
 8002ec6:	462e      	mov	r6, r5
 8002ec8:	e7d4      	b.n	8002e74 <HAL_RCCEx_PeriphCLKConfig+0x330>
 8002eca:	4a6f      	ldr	r2, [pc, #444]	; (8003088 <HAL_RCCEx_PeriphCLKConfig+0x544>)
 8002ecc:	6ad3      	ldr	r3, [r2, #44]	; 0x2c
 8002ece:	f443 3300 	orr.w	r3, r3, #131072	; 0x20000
 8002ed2:	62d3      	str	r3, [r2, #44]	; 0x2c
 8002ed4:	e7d9      	b.n	8002e8a <HAL_RCCEx_PeriphCLKConfig+0x346>
 8002ed6:	2101      	movs	r1, #1
 8002ed8:	1d20      	adds	r0, r4, #4
 8002eda:	f7ff fd43 	bl	8002964 <RCCEx_PLL2_Config>
 8002ede:	4605      	mov	r5, r0
 8002ee0:	e7d3      	b.n	8002e8a <HAL_RCCEx_PeriphCLKConfig+0x346>
 8002ee2:	2601      	movs	r6, #1
 8002ee4:	4635      	mov	r5, r6
 8002ee6:	e7d8      	b.n	8002e9a <HAL_RCCEx_PeriphCLKConfig+0x356>
 8002ee8:	462e      	mov	r6, r5
 8002eea:	e7d6      	b.n	8002e9a <HAL_RCCEx_PeriphCLKConfig+0x356>
 8002eec:	4a66      	ldr	r2, [pc, #408]	; (8003088 <HAL_RCCEx_PeriphCLKConfig+0x544>)
 8002eee:	6ad3      	ldr	r3, [r2, #44]	; 0x2c
 8002ef0:	f443 3300 	orr.w	r3, r3, #131072	; 0x20000
 8002ef4:	62d3      	str	r3, [r2, #44]	; 0x2c
 8002ef6:	2d00      	cmp	r5, #0
 8002ef8:	d14d      	bne.n	8002f96 <HAL_RCCEx_PeriphCLKConfig+0x452>
 8002efa:	4a63      	ldr	r2, [pc, #396]	; (8003088 <HAL_RCCEx_PeriphCLKConfig+0x544>)
 8002efc:	6c61      	ldr	r1, [r4, #68]	; 0x44
 8002efe:	6cd3      	ldr	r3, [r2, #76]	; 0x4c
 8002f00:	f023 0303 	bic.w	r3, r3, #3
 8002f04:	430b      	orrs	r3, r1
 8002f06:	64d3      	str	r3, [r2, #76]	; 0x4c
 8002f08:	6823      	ldr	r3, [r4, #0]
 8002f0a:	025f      	lsls	r7, r3, #9
 8002f0c:	d54d      	bpl.n	8002faa <HAL_RCCEx_PeriphCLKConfig+0x466>
 8002f0e:	4f5f      	ldr	r7, [pc, #380]	; (800308c <HAL_RCCEx_PeriphCLKConfig+0x548>)
 8002f10:	683b      	ldr	r3, [r7, #0]
 8002f12:	f443 7380 	orr.w	r3, r3, #256	; 0x100
 8002f16:	603b      	str	r3, [r7, #0]
 8002f18:	f7fe ff0a 	bl	8001d30 <HAL_GetTick>
 8002f1c:	4680      	mov	r8, r0
 8002f1e:	683b      	ldr	r3, [r7, #0]
 8002f20:	05d8      	lsls	r0, r3, #23
 8002f22:	d53a      	bpl.n	8002f9a <HAL_RCCEx_PeriphCLKConfig+0x456>
 8002f24:	2d00      	cmp	r5, #0
 8002f26:	d161      	bne.n	8002fec <HAL_RCCEx_PeriphCLKConfig+0x4a8>
 8002f28:	4b57      	ldr	r3, [pc, #348]	; (8003088 <HAL_RCCEx_PeriphCLKConfig+0x544>)
 8002f2a:	f8d4 00b0 	ldr.w	r0, [r4, #176]	; 0xb0
 8002f2e:	6f1a      	ldr	r2, [r3, #112]	; 0x70
 8002f30:	4042      	eors	r2, r0
 8002f32:	f412 7f40 	tst.w	r2, #768	; 0x300
 8002f36:	d00b      	beq.n	8002f50 <HAL_RCCEx_PeriphCLKConfig+0x40c>
 8002f38:	6f1a      	ldr	r2, [r3, #112]	; 0x70
 8002f3a:	6f19      	ldr	r1, [r3, #112]	; 0x70
 8002f3c:	f422 7240 	bic.w	r2, r2, #768	; 0x300
 8002f40:	f441 3180 	orr.w	r1, r1, #65536	; 0x10000
 8002f44:	6719      	str	r1, [r3, #112]	; 0x70
 8002f46:	6f19      	ldr	r1, [r3, #112]	; 0x70
 8002f48:	f421 3180 	bic.w	r1, r1, #65536	; 0x10000
 8002f4c:	6719      	str	r1, [r3, #112]	; 0x70
 8002f4e:	671a      	str	r2, [r3, #112]	; 0x70
 8002f50:	f5b0 7f80 	cmp.w	r0, #256	; 0x100
 8002f54:	d036      	beq.n	8002fc4 <HAL_RCCEx_PeriphCLKConfig+0x480>
 8002f56:	f8d4 30b0 	ldr.w	r3, [r4, #176]	; 0xb0
 8002f5a:	494b      	ldr	r1, [pc, #300]	; (8003088 <HAL_RCCEx_PeriphCLKConfig+0x544>)
 8002f5c:	f403 7240 	and.w	r2, r3, #768	; 0x300
 8002f60:	f5b2 7f40 	cmp.w	r2, #768	; 0x300
 8002f64:	d13e      	bne.n	8002fe4 <HAL_RCCEx_PeriphCLKConfig+0x4a0>
 8002f66:	6908      	ldr	r0, [r1, #16]
 8002f68:	4a49      	ldr	r2, [pc, #292]	; (8003090 <HAL_RCCEx_PeriphCLKConfig+0x54c>)
 8002f6a:	f420 507c 	bic.w	r0, r0, #16128	; 0x3f00
 8002f6e:	ea02 1213 	and.w	r2, r2, r3, lsr #4
 8002f72:	4302      	orrs	r2, r0
 8002f74:	610a      	str	r2, [r1, #16]
 8002f76:	f3c3 030b 	ubfx	r3, r3, #0, #12
 8002f7a:	4a43      	ldr	r2, [pc, #268]	; (8003088 <HAL_RCCEx_PeriphCLKConfig+0x544>)
 8002f7c:	6f11      	ldr	r1, [r2, #112]	; 0x70
 8002f7e:	430b      	orrs	r3, r1
 8002f80:	6713      	str	r3, [r2, #112]	; 0x70
 8002f82:	e012      	b.n	8002faa <HAL_RCCEx_PeriphCLKConfig+0x466>
 8002f84:	2102      	movs	r1, #2
 8002f86:	1d20      	adds	r0, r4, #4
 8002f88:	f7ff fcec 	bl	8002964 <RCCEx_PLL2_Config>
 8002f8c:	4605      	mov	r5, r0
 8002f8e:	e7b2      	b.n	8002ef6 <HAL_RCCEx_PeriphCLKConfig+0x3b2>
 8002f90:	2601      	movs	r6, #1
 8002f92:	4635      	mov	r5, r6
 8002f94:	e7b8      	b.n	8002f08 <HAL_RCCEx_PeriphCLKConfig+0x3c4>
 8002f96:	462e      	mov	r6, r5
 8002f98:	e7b6      	b.n	8002f08 <HAL_RCCEx_PeriphCLKConfig+0x3c4>
 8002f9a:	f7fe fec9 	bl	8001d30 <HAL_GetTick>
 8002f9e:	eba0 0008 	sub.w	r0, r0, r8
 8002fa2:	2864      	cmp	r0, #100	; 0x64
 8002fa4:	d9bb      	bls.n	8002f1e <HAL_RCCEx_PeriphCLKConfig+0x3da>
 8002fa6:	2603      	movs	r6, #3
 8002fa8:	4635      	mov	r5, r6
 8002faa:	6823      	ldr	r3, [r4, #0]
 8002fac:	07da      	lsls	r2, r3, #31
 8002fae:	d52d      	bpl.n	800300c <HAL_RCCEx_PeriphCLKConfig+0x4c8>
 8002fb0:	6fa3      	ldr	r3, [r4, #120]	; 0x78
 8002fb2:	2b10      	cmp	r3, #16
 8002fb4:	d03b      	beq.n	800302e <HAL_RCCEx_PeriphCLKConfig+0x4ea>
 8002fb6:	d81b      	bhi.n	8002ff0 <HAL_RCCEx_PeriphCLKConfig+0x4ac>
 8002fb8:	b303      	cbz	r3, 8002ffc <HAL_RCCEx_PeriphCLKConfig+0x4b8>
 8002fba:	2b08      	cmp	r3, #8
 8002fbc:	d031      	beq.n	8003022 <HAL_RCCEx_PeriphCLKConfig+0x4de>
 8002fbe:	2601      	movs	r6, #1
 8002fc0:	4635      	mov	r5, r6
 8002fc2:	e023      	b.n	800300c <HAL_RCCEx_PeriphCLKConfig+0x4c8>
 8002fc4:	f7fe feb4 	bl	8001d30 <HAL_GetTick>
 8002fc8:	4f2f      	ldr	r7, [pc, #188]	; (8003088 <HAL_RCCEx_PeriphCLKConfig+0x544>)
 8002fca:	4680      	mov	r8, r0
 8002fcc:	f241 3988 	movw	r9, #5000	; 0x1388
 8002fd0:	6f3b      	ldr	r3, [r7, #112]	; 0x70
 8002fd2:	0799      	lsls	r1, r3, #30
 8002fd4:	d4bf      	bmi.n	8002f56 <HAL_RCCEx_PeriphCLKConfig+0x412>
 8002fd6:	f7fe feab 	bl	8001d30 <HAL_GetTick>
 8002fda:	eba0 0008 	sub.w	r0, r0, r8
 8002fde:	4548      	cmp	r0, r9
 8002fe0:	d9f6      	bls.n	8002fd0 <HAL_RCCEx_PeriphCLKConfig+0x48c>
 8002fe2:	e7e0      	b.n	8002fa6 <HAL_RCCEx_PeriphCLKConfig+0x462>
 8002fe4:	690a      	ldr	r2, [r1, #16]
 8002fe6:	f422 527c 	bic.w	r2, r2, #16128	; 0x3f00
 8002fea:	e7c3      	b.n	8002f74 <HAL_RCCEx_PeriphCLKConfig+0x430>
 8002fec:	462e      	mov	r6, r5
 8002fee:	e7dc      	b.n	8002faa <HAL_RCCEx_PeriphCLKConfig+0x466>
 8002ff0:	2b20      	cmp	r3, #32
 8002ff2:	d003      	beq.n	8002ffc <HAL_RCCEx_PeriphCLKConfig+0x4b8>
 8002ff4:	2b28      	cmp	r3, #40	; 0x28
 8002ff6:	d001      	beq.n	8002ffc <HAL_RCCEx_PeriphCLKConfig+0x4b8>
 8002ff8:	2b18      	cmp	r3, #24
 8002ffa:	d1e0      	bne.n	8002fbe <HAL_RCCEx_PeriphCLKConfig+0x47a>
 8002ffc:	b9ed      	cbnz	r5, 800303a <HAL_RCCEx_PeriphCLKConfig+0x4f6>
 8002ffe:	4a22      	ldr	r2, [pc, #136]	; (8003088 <HAL_RCCEx_PeriphCLKConfig+0x544>)
 8003000:	6fa1      	ldr	r1, [r4, #120]	; 0x78
 8003002:	6d53      	ldr	r3, [r2, #84]	; 0x54
 8003004:	f023 0338 	bic.w	r3, r3, #56	; 0x38
 8003008:	430b      	orrs	r3, r1
 800300a:	6553      	str	r3, [r2, #84]	; 0x54
 800300c:	6823      	ldr	r3, [r4, #0]
 800300e:	079b      	lsls	r3, r3, #30
 8003010:	d522      	bpl.n	8003058 <HAL_RCCEx_PeriphCLKConfig+0x514>
 8003012:	6f63      	ldr	r3, [r4, #116]	; 0x74
 8003014:	2b05      	cmp	r3, #5
 8003016:	d831      	bhi.n	800307c <HAL_RCCEx_PeriphCLKConfig+0x538>
 8003018:	e8df f003 	tbb	[pc, r3]
 800301c:	162a1116 	.word	0x162a1116
 8003020:	1616      	.short	0x1616
 8003022:	2101      	movs	r1, #1
 8003024:	1d20      	adds	r0, r4, #4
 8003026:	f7ff fc9d 	bl	8002964 <RCCEx_PLL2_Config>
 800302a:	4605      	mov	r5, r0
 800302c:	e7e6      	b.n	8002ffc <HAL_RCCEx_PeriphCLKConfig+0x4b8>
 800302e:	2101      	movs	r1, #1
 8003030:	f104 0024 	add.w	r0, r4, #36	; 0x24
 8003034:	f7ff fd0e 	bl	8002a54 <RCCEx_PLL3_Config>
 8003038:	e7f7      	b.n	800302a <HAL_RCCEx_PeriphCLKConfig+0x4e6>
 800303a:	462e      	mov	r6, r5
 800303c:	e7e6      	b.n	800300c <HAL_RCCEx_PeriphCLKConfig+0x4c8>
 800303e:	2101      	movs	r1, #1
 8003040:	1d20      	adds	r0, r4, #4
 8003042:	f7ff fc8f 	bl	8002964 <RCCEx_PLL2_Config>
 8003046:	4605      	mov	r5, r0
 8003048:	b9dd      	cbnz	r5, 8003082 <HAL_RCCEx_PeriphCLKConfig+0x53e>
 800304a:	4a0f      	ldr	r2, [pc, #60]	; (8003088 <HAL_RCCEx_PeriphCLKConfig+0x544>)
 800304c:	6f61      	ldr	r1, [r4, #116]	; 0x74
 800304e:	6d53      	ldr	r3, [r2, #84]	; 0x54
 8003050:	f023 0307 	bic.w	r3, r3, #7
 8003054:	430b      	orrs	r3, r1
 8003056:	6553      	str	r3, [r2, #84]	; 0x54
 8003058:	6823      	ldr	r3, [r4, #0]
 800305a:	075f      	lsls	r7, r3, #29
 800305c:	d528      	bpl.n	80030b0 <HAL_RCCEx_PeriphCLKConfig+0x56c>
 800305e:	f8d4 3090 	ldr.w	r3, [r4, #144]	; 0x90
 8003062:	2b05      	cmp	r3, #5
 8003064:	d83a      	bhi.n	80030dc <HAL_RCCEx_PeriphCLKConfig+0x598>
 8003066:	e8df f003 	tbb	[pc, r3]
 800306a:	151a      	.short	0x151a
 800306c:	1a1a1a33 	.word	0x1a1a1a33
 8003070:	2101      	movs	r1, #1
 8003072:	f104 0024 	add.w	r0, r4, #36	; 0x24
 8003076:	f7ff fced 	bl	8002a54 <RCCEx_PLL3_Config>
 800307a:	e7e4      	b.n	8003046 <HAL_RCCEx_PeriphCLKConfig+0x502>
 800307c:	2601      	movs	r6, #1
 800307e:	4635      	mov	r5, r6
 8003080:	e7ea      	b.n	8003058 <HAL_RCCEx_PeriphCLKConfig+0x514>
 8003082:	462e      	mov	r6, r5
 8003084:	e7e8      	b.n	8003058 <HAL_RCCEx_PeriphCLKConfig+0x514>
 8003086:	bf00      	nop
 8003088:	58024400 	.word	0x58024400
 800308c:	58024800 	.word	0x58024800
 8003090:	00ffffcf 	.word	0x00ffffcf
 8003094:	2101      	movs	r1, #1
 8003096:	1d20      	adds	r0, r4, #4
 8003098:	f7ff fc64 	bl	8002964 <RCCEx_PLL2_Config>
 800309c:	4605      	mov	r5, r0
 800309e:	bb05      	cbnz	r5, 80030e2 <HAL_RCCEx_PeriphCLKConfig+0x59e>
 80030a0:	4a98      	ldr	r2, [pc, #608]	; (8003304 <HAL_RCCEx_PeriphCLKConfig+0x7c0>)
 80030a2:	f8d4 1090 	ldr.w	r1, [r4, #144]	; 0x90
 80030a6:	6d93      	ldr	r3, [r2, #88]	; 0x58
 80030a8:	f023 0307 	bic.w	r3, r3, #7
 80030ac:	430b      	orrs	r3, r1
 80030ae:	6593      	str	r3, [r2, #88]	; 0x58
 80030b0:	6823      	ldr	r3, [r4, #0]
 80030b2:	0698      	lsls	r0, r3, #26
 80030b4:	d529      	bpl.n	800310a <HAL_RCCEx_PeriphCLKConfig+0x5c6>
 80030b6:	f8d4 308c 	ldr.w	r3, [r4, #140]	; 0x8c
 80030ba:	f1b3 5f00 	cmp.w	r3, #536870912	; 0x20000000
 80030be:	d03a      	beq.n	8003136 <HAL_RCCEx_PeriphCLKConfig+0x5f2>
 80030c0:	d811      	bhi.n	80030e6 <HAL_RCCEx_PeriphCLKConfig+0x5a2>
 80030c2:	b1cb      	cbz	r3, 80030f8 <HAL_RCCEx_PeriphCLKConfig+0x5b4>
 80030c4:	f1b3 5f80 	cmp.w	r3, #268435456	; 0x10000000
 80030c8:	d02f      	beq.n	800312a <HAL_RCCEx_PeriphCLKConfig+0x5e6>
 80030ca:	2601      	movs	r6, #1
 80030cc:	4635      	mov	r5, r6
 80030ce:	e01c      	b.n	800310a <HAL_RCCEx_PeriphCLKConfig+0x5c6>
 80030d0:	2101      	movs	r1, #1
 80030d2:	f104 0024 	add.w	r0, r4, #36	; 0x24
 80030d6:	f7ff fcbd 	bl	8002a54 <RCCEx_PLL3_Config>
 80030da:	e7df      	b.n	800309c <HAL_RCCEx_PeriphCLKConfig+0x558>
 80030dc:	2601      	movs	r6, #1
 80030de:	4635      	mov	r5, r6
 80030e0:	e7e6      	b.n	80030b0 <HAL_RCCEx_PeriphCLKConfig+0x56c>
 80030e2:	462e      	mov	r6, r5
 80030e4:	e7e4      	b.n	80030b0 <HAL_RCCEx_PeriphCLKConfig+0x56c>
 80030e6:	f1b3 4f80 	cmp.w	r3, #1073741824	; 0x40000000
 80030ea:	d005      	beq.n	80030f8 <HAL_RCCEx_PeriphCLKConfig+0x5b4>
 80030ec:	f1b3 4fa0 	cmp.w	r3, #1342177280	; 0x50000000
 80030f0:	d002      	beq.n	80030f8 <HAL_RCCEx_PeriphCLKConfig+0x5b4>
 80030f2:	f1b3 5f40 	cmp.w	r3, #805306368	; 0x30000000
 80030f6:	d1e8      	bne.n	80030ca <HAL_RCCEx_PeriphCLKConfig+0x586>
 80030f8:	bb1d      	cbnz	r5, 8003142 <HAL_RCCEx_PeriphCLKConfig+0x5fe>
 80030fa:	4a82      	ldr	r2, [pc, #520]	; (8003304 <HAL_RCCEx_PeriphCLKConfig+0x7c0>)
 80030fc:	f8d4 108c 	ldr.w	r1, [r4, #140]	; 0x8c
 8003100:	6d53      	ldr	r3, [r2, #84]	; 0x54
 8003102:	f023 43e0 	bic.w	r3, r3, #1879048192	; 0x70000000
 8003106:	430b      	orrs	r3, r1
 8003108:	6553      	str	r3, [r2, #84]	; 0x54
 800310a:	6823      	ldr	r3, [r4, #0]
 800310c:	0659      	lsls	r1, r3, #25
 800310e:	d52c      	bpl.n	800316a <HAL_RCCEx_PeriphCLKConfig+0x626>
 8003110:	f8d4 3098 	ldr.w	r3, [r4, #152]	; 0x98
 8003114:	f5b3 6f00 	cmp.w	r3, #2048	; 0x800
 8003118:	d03f      	beq.n	800319a <HAL_RCCEx_PeriphCLKConfig+0x656>
 800311a:	d814      	bhi.n	8003146 <HAL_RCCEx_PeriphCLKConfig+0x602>
 800311c:	b1e3      	cbz	r3, 8003158 <HAL_RCCEx_PeriphCLKConfig+0x614>
 800311e:	f5b3 6f80 	cmp.w	r3, #1024	; 0x400
 8003122:	d034      	beq.n	800318e <HAL_RCCEx_PeriphCLKConfig+0x64a>
 8003124:	2601      	movs	r6, #1
 8003126:	4635      	mov	r5, r6
 8003128:	e01f      	b.n	800316a <HAL_RCCEx_PeriphCLKConfig+0x626>
 800312a:	2100      	movs	r1, #0
 800312c:	1d20      	adds	r0, r4, #4
 800312e:	f7ff fc19 	bl	8002964 <RCCEx_PLL2_Config>
 8003132:	4605      	mov	r5, r0
 8003134:	e7e0      	b.n	80030f8 <HAL_RCCEx_PeriphCLKConfig+0x5b4>
 8003136:	2102      	movs	r1, #2
 8003138:	f104 0024 	add.w	r0, r4, #36	; 0x24
 800313c:	f7ff fc8a 	bl	8002a54 <RCCEx_PLL3_Config>
 8003140:	e7f7      	b.n	8003132 <HAL_RCCEx_PeriphCLKConfig+0x5ee>
 8003142:	462e      	mov	r6, r5
 8003144:	e7e1      	b.n	800310a <HAL_RCCEx_PeriphCLKConfig+0x5c6>
 8003146:	f5b3 5f80 	cmp.w	r3, #4096	; 0x1000
 800314a:	d005      	beq.n	8003158 <HAL_RCCEx_PeriphCLKConfig+0x614>
 800314c:	f5b3 5fa0 	cmp.w	r3, #5120	; 0x1400
 8003150:	d002      	beq.n	8003158 <HAL_RCCEx_PeriphCLKConfig+0x614>
 8003152:	f5b3 6f40 	cmp.w	r3, #3072	; 0xc00
 8003156:	d1e5      	bne.n	8003124 <HAL_RCCEx_PeriphCLKConfig+0x5e0>
 8003158:	bb2d      	cbnz	r5, 80031a6 <HAL_RCCEx_PeriphCLKConfig+0x662>
 800315a:	4a6a      	ldr	r2, [pc, #424]	; (8003304 <HAL_RCCEx_PeriphCLKConfig+0x7c0>)
 800315c:	f8d4 1098 	ldr.w	r1, [r4, #152]	; 0x98
 8003160:	6d93      	ldr	r3, [r2, #88]	; 0x58
 8003162:	f423 53e0 	bic.w	r3, r3, #7168	; 0x1c00
 8003166:	430b      	orrs	r3, r1
 8003168:	6593      	str	r3, [r2, #88]	; 0x58
 800316a:	6823      	ldr	r3, [r4, #0]
 800316c:	061a      	lsls	r2, r3, #24
 800316e:	d530      	bpl.n	80031d2 <HAL_RCCEx_PeriphCLKConfig+0x68e>
 8003170:	f8d4 309c 	ldr.w	r3, [r4, #156]	; 0x9c
 8003174:	f5b3 4f80 	cmp.w	r3, #16384	; 0x4000
 8003178:	f000 80a4 	beq.w	80032c4 <HAL_RCCEx_PeriphCLKConfig+0x780>
 800317c:	d815      	bhi.n	80031aa <HAL_RCCEx_PeriphCLKConfig+0x666>
 800317e:	b1eb      	cbz	r3, 80031bc <HAL_RCCEx_PeriphCLKConfig+0x678>
 8003180:	f5b3 5f00 	cmp.w	r3, #8192	; 0x2000
 8003184:	f000 8098 	beq.w	80032b8 <HAL_RCCEx_PeriphCLKConfig+0x774>
 8003188:	2601      	movs	r6, #1
 800318a:	4635      	mov	r5, r6
 800318c:	e021      	b.n	80031d2 <HAL_RCCEx_PeriphCLKConfig+0x68e>
 800318e:	2100      	movs	r1, #0
 8003190:	1d20      	adds	r0, r4, #4
 8003192:	f7ff fbe7 	bl	8002964 <RCCEx_PLL2_Config>
 8003196:	4605      	mov	r5, r0
 8003198:	e7de      	b.n	8003158 <HAL_RCCEx_PeriphCLKConfig+0x614>
 800319a:	2102      	movs	r1, #2
 800319c:	f104 0024 	add.w	r0, r4, #36	; 0x24
 80031a0:	f7ff fc58 	bl	8002a54 <RCCEx_PLL3_Config>
 80031a4:	e7f7      	b.n	8003196 <HAL_RCCEx_PeriphCLKConfig+0x652>
 80031a6:	462e      	mov	r6, r5
 80031a8:	e7df      	b.n	800316a <HAL_RCCEx_PeriphCLKConfig+0x626>
 80031aa:	f5b3 4f00 	cmp.w	r3, #32768	; 0x8000
 80031ae:	d005      	beq.n	80031bc <HAL_RCCEx_PeriphCLKConfig+0x678>
 80031b0:	f5b3 4f20 	cmp.w	r3, #40960	; 0xa000
 80031b4:	d002      	beq.n	80031bc <HAL_RCCEx_PeriphCLKConfig+0x678>
 80031b6:	f5b3 4fc0 	cmp.w	r3, #24576	; 0x6000
 80031ba:	d1e5      	bne.n	8003188 <HAL_RCCEx_PeriphCLKConfig+0x644>
 80031bc:	2d00      	cmp	r5, #0
 80031be:	f040 8087 	bne.w	80032d0 <HAL_RCCEx_PeriphCLKConfig+0x78c>
 80031c2:	4a50      	ldr	r2, [pc, #320]	; (8003304 <HAL_RCCEx_PeriphCLKConfig+0x7c0>)
 80031c4:	f8d4 109c 	ldr.w	r1, [r4, #156]	; 0x9c
 80031c8:	6d93      	ldr	r3, [r2, #88]	; 0x58
 80031ca:	f423 4360 	bic.w	r3, r3, #57344	; 0xe000
 80031ce:	430b      	orrs	r3, r1
 80031d0:	6593      	str	r3, [r2, #88]	; 0x58
 80031d2:	6823      	ldr	r3, [r4, #0]
 80031d4:	071b      	lsls	r3, r3, #28
 80031d6:	d514      	bpl.n	8003202 <HAL_RCCEx_PeriphCLKConfig+0x6be>
 80031d8:	f8d4 3080 	ldr.w	r3, [r4, #128]	; 0x80
 80031dc:	f5b3 5f80 	cmp.w	r3, #4096	; 0x1000
 80031e0:	d107      	bne.n	80031f2 <HAL_RCCEx_PeriphCLKConfig+0x6ae>
 80031e2:	2102      	movs	r1, #2
 80031e4:	f104 0024 	add.w	r0, r4, #36	; 0x24
 80031e8:	f7ff fc34 	bl	8002a54 <RCCEx_PLL3_Config>
 80031ec:	2800      	cmp	r0, #0
 80031ee:	bf18      	it	ne
 80031f0:	2601      	movne	r6, #1
 80031f2:	4a44      	ldr	r2, [pc, #272]	; (8003304 <HAL_RCCEx_PeriphCLKConfig+0x7c0>)
 80031f4:	f8d4 1080 	ldr.w	r1, [r4, #128]	; 0x80
 80031f8:	6d53      	ldr	r3, [r2, #84]	; 0x54
 80031fa:	f423 5340 	bic.w	r3, r3, #12288	; 0x3000
 80031fe:	430b      	orrs	r3, r1
 8003200:	6553      	str	r3, [r2, #84]	; 0x54
 8003202:	6823      	ldr	r3, [r4, #0]
 8003204:	06df      	lsls	r7, r3, #27
 8003206:	d514      	bpl.n	8003232 <HAL_RCCEx_PeriphCLKConfig+0x6ee>
 8003208:	f8d4 3094 	ldr.w	r3, [r4, #148]	; 0x94
 800320c:	f5b3 7f80 	cmp.w	r3, #256	; 0x100
 8003210:	d107      	bne.n	8003222 <HAL_RCCEx_PeriphCLKConfig+0x6de>
 8003212:	2102      	movs	r1, #2
 8003214:	f104 0024 	add.w	r0, r4, #36	; 0x24
 8003218:	f7ff fc1c 	bl	8002a54 <RCCEx_PLL3_Config>
 800321c:	2800      	cmp	r0, #0
 800321e:	bf18      	it	ne
 8003220:	2601      	movne	r6, #1
 8003222:	4a38      	ldr	r2, [pc, #224]	; (8003304 <HAL_RCCEx_PeriphCLKConfig+0x7c0>)
 8003224:	f8d4 1094 	ldr.w	r1, [r4, #148]	; 0x94
 8003228:	6d93      	ldr	r3, [r2, #88]	; 0x58
 800322a:	f423 7340 	bic.w	r3, r3, #768	; 0x300
 800322e:	430b      	orrs	r3, r1
 8003230:	6593      	str	r3, [r2, #88]	; 0x58
 8003232:	6823      	ldr	r3, [r4, #0]
 8003234:	0318      	lsls	r0, r3, #12
 8003236:	d517      	bpl.n	8003268 <HAL_RCCEx_PeriphCLKConfig+0x724>
 8003238:	f8d4 10a0 	ldr.w	r1, [r4, #160]	; 0xa0
 800323c:	f5b1 3f80 	cmp.w	r1, #65536	; 0x10000
 8003240:	d048      	beq.n	80032d4 <HAL_RCCEx_PeriphCLKConfig+0x790>
 8003242:	f5b1 3f00 	cmp.w	r1, #131072	; 0x20000
 8003246:	d005      	beq.n	8003254 <HAL_RCCEx_PeriphCLKConfig+0x710>
 8003248:	2900      	cmp	r1, #0
 800324a:	d149      	bne.n	80032e0 <HAL_RCCEx_PeriphCLKConfig+0x79c>
 800324c:	1d20      	adds	r0, r4, #4
 800324e:	f7ff fb89 	bl	8002964 <RCCEx_PLL2_Config>
 8003252:	4605      	mov	r5, r0
 8003254:	2d00      	cmp	r5, #0
 8003256:	d146      	bne.n	80032e6 <HAL_RCCEx_PeriphCLKConfig+0x7a2>
 8003258:	4a2a      	ldr	r2, [pc, #168]	; (8003304 <HAL_RCCEx_PeriphCLKConfig+0x7c0>)
 800325a:	f8d4 10a0 	ldr.w	r1, [r4, #160]	; 0xa0
 800325e:	6d93      	ldr	r3, [r2, #88]	; 0x58
 8003260:	f423 3340 	bic.w	r3, r3, #196608	; 0x30000
 8003264:	430b      	orrs	r3, r1
 8003266:	6593      	str	r3, [r2, #88]	; 0x58
 8003268:	6823      	ldr	r3, [r4, #0]
 800326a:	0359      	lsls	r1, r3, #13
 800326c:	d518      	bpl.n	80032a0 <HAL_RCCEx_PeriphCLKConfig+0x75c>
 800326e:	f8d4 3084 	ldr.w	r3, [r4, #132]	; 0x84
 8003272:	f5b3 1f00 	cmp.w	r3, #2097152	; 0x200000
 8003276:	d038      	beq.n	80032ea <HAL_RCCEx_PeriphCLKConfig+0x7a6>
 8003278:	f5b3 1f40 	cmp.w	r3, #3145728	; 0x300000
 800327c:	d007      	beq.n	800328e <HAL_RCCEx_PeriphCLKConfig+0x74a>
 800327e:	f5b3 1f80 	cmp.w	r3, #1048576	; 0x100000
 8003282:	d139      	bne.n	80032f8 <HAL_RCCEx_PeriphCLKConfig+0x7b4>
 8003284:	4a1f      	ldr	r2, [pc, #124]	; (8003304 <HAL_RCCEx_PeriphCLKConfig+0x7c0>)
 8003286:	6ad3      	ldr	r3, [r2, #44]	; 0x2c
 8003288:	f443 3300 	orr.w	r3, r3, #131072	; 0x20000
 800328c:	62d3      	str	r3, [r2, #44]	; 0x2c
 800328e:	bbb5      	cbnz	r5, 80032fe <HAL_RCCEx_PeriphCLKConfig+0x7ba>
 8003290:	4a1c      	ldr	r2, [pc, #112]	; (8003304 <HAL_RCCEx_PeriphCLKConfig+0x7c0>)
 8003292:	f8d4 1084 	ldr.w	r1, [r4, #132]	; 0x84
 8003296:	6d53      	ldr	r3, [r2, #84]	; 0x54
 8003298:	f423 1340 	bic.w	r3, r3, #3145728	; 0x300000
 800329c:	430b      	orrs	r3, r1
 800329e:	6553      	str	r3, [r2, #84]	; 0x54
 80032a0:	6823      	ldr	r3, [r4, #0]
 80032a2:	03da      	lsls	r2, r3, #15
 80032a4:	d53e      	bpl.n	8003324 <HAL_RCCEx_PeriphCLKConfig+0x7e0>
 80032a6:	6ce3      	ldr	r3, [r4, #76]	; 0x4c
 80032a8:	b373      	cbz	r3, 8003308 <HAL_RCCEx_PeriphCLKConfig+0x7c4>
 80032aa:	f5b3 3f80 	cmp.w	r3, #65536	; 0x10000
 80032ae:	f000 808c 	beq.w	80033ca <HAL_RCCEx_PeriphCLKConfig+0x886>
 80032b2:	2601      	movs	r6, #1
 80032b4:	4635      	mov	r5, r6
 80032b6:	e035      	b.n	8003324 <HAL_RCCEx_PeriphCLKConfig+0x7e0>
 80032b8:	2100      	movs	r1, #0
 80032ba:	1d20      	adds	r0, r4, #4
 80032bc:	f7ff fb52 	bl	8002964 <RCCEx_PLL2_Config>
 80032c0:	4605      	mov	r5, r0
 80032c2:	e77b      	b.n	80031bc <HAL_RCCEx_PeriphCLKConfig+0x678>
 80032c4:	2102      	movs	r1, #2
 80032c6:	f104 0024 	add.w	r0, r4, #36	; 0x24
 80032ca:	f7ff fbc3 	bl	8002a54 <RCCEx_PLL3_Config>
 80032ce:	e7f7      	b.n	80032c0 <HAL_RCCEx_PeriphCLKConfig+0x77c>
 80032d0:	462e      	mov	r6, r5
 80032d2:	e77e      	b.n	80031d2 <HAL_RCCEx_PeriphCLKConfig+0x68e>
 80032d4:	2102      	movs	r1, #2
 80032d6:	f104 0024 	add.w	r0, r4, #36	; 0x24
 80032da:	f7ff fbbb 	bl	8002a54 <RCCEx_PLL3_Config>
 80032de:	e7b8      	b.n	8003252 <HAL_RCCEx_PeriphCLKConfig+0x70e>
 80032e0:	2601      	movs	r6, #1
 80032e2:	4635      	mov	r5, r6
 80032e4:	e7c0      	b.n	8003268 <HAL_RCCEx_PeriphCLKConfig+0x724>
 80032e6:	462e      	mov	r6, r5
 80032e8:	e7be      	b.n	8003268 <HAL_RCCEx_PeriphCLKConfig+0x724>
 80032ea:	2101      	movs	r1, #1
 80032ec:	f104 0024 	add.w	r0, r4, #36	; 0x24
 80032f0:	f7ff fbb0 	bl	8002a54 <RCCEx_PLL3_Config>
 80032f4:	4605      	mov	r5, r0
 80032f6:	e7ca      	b.n	800328e <HAL_RCCEx_PeriphCLKConfig+0x74a>
 80032f8:	2601      	movs	r6, #1
 80032fa:	4635      	mov	r5, r6
 80032fc:	e7d0      	b.n	80032a0 <HAL_RCCEx_PeriphCLKConfig+0x75c>
 80032fe:	462e      	mov	r6, r5
 8003300:	e7ce      	b.n	80032a0 <HAL_RCCEx_PeriphCLKConfig+0x75c>
 8003302:	bf00      	nop
 8003304:	58024400 	.word	0x58024400
 8003308:	4a3c      	ldr	r2, [pc, #240]	; (80033fc <HAL_RCCEx_PeriphCLKConfig+0x8b8>)
 800330a:	6ad3      	ldr	r3, [r2, #44]	; 0x2c
 800330c:	f443 3300 	orr.w	r3, r3, #131072	; 0x20000
 8003310:	62d3      	str	r3, [r2, #44]	; 0x2c
 8003312:	2d00      	cmp	r5, #0
 8003314:	d15f      	bne.n	80033d6 <HAL_RCCEx_PeriphCLKConfig+0x892>
 8003316:	4a39      	ldr	r2, [pc, #228]	; (80033fc <HAL_RCCEx_PeriphCLKConfig+0x8b8>)
 8003318:	6ce1      	ldr	r1, [r4, #76]	; 0x4c
 800331a:	6cd3      	ldr	r3, [r2, #76]	; 0x4c
 800331c:	f423 3380 	bic.w	r3, r3, #65536	; 0x10000
 8003320:	430b      	orrs	r3, r1
 8003322:	64d3      	str	r3, [r2, #76]	; 0x4c
 8003324:	6823      	ldr	r3, [r4, #0]
 8003326:	009b      	lsls	r3, r3, #2
 8003328:	d507      	bpl.n	800333a <HAL_RCCEx_PeriphCLKConfig+0x7f6>
 800332a:	2102      	movs	r1, #2
 800332c:	f104 0024 	add.w	r0, r4, #36	; 0x24
 8003330:	f7ff fb90 	bl	8002a54 <RCCEx_PLL3_Config>
 8003334:	2800      	cmp	r0, #0
 8003336:	bf18      	it	ne
 8003338:	2601      	movne	r6, #1
 800333a:	6823      	ldr	r3, [r4, #0]
 800333c:	039f      	lsls	r7, r3, #14
 800333e:	d50e      	bpl.n	800335e <HAL_RCCEx_PeriphCLKConfig+0x81a>
 8003340:	6fe1      	ldr	r1, [r4, #124]	; 0x7c
 8003342:	f5b1 7f80 	cmp.w	r1, #256	; 0x100
 8003346:	d050      	beq.n	80033ea <HAL_RCCEx_PeriphCLKConfig+0x8a6>
 8003348:	d847      	bhi.n	80033da <HAL_RCCEx_PeriphCLKConfig+0x896>
 800334a:	2900      	cmp	r1, #0
 800334c:	d14b      	bne.n	80033e6 <HAL_RCCEx_PeriphCLKConfig+0x8a2>
 800334e:	2d00      	cmp	r5, #0
 8003350:	d151      	bne.n	80033f6 <HAL_RCCEx_PeriphCLKConfig+0x8b2>
 8003352:	482a      	ldr	r0, [pc, #168]	; (80033fc <HAL_RCCEx_PeriphCLKConfig+0x8b8>)
 8003354:	6d42      	ldr	r2, [r0, #84]	; 0x54
 8003356:	f422 7240 	bic.w	r2, r2, #768	; 0x300
 800335a:	430a      	orrs	r2, r1
 800335c:	6542      	str	r2, [r0, #84]	; 0x54
 800335e:	02dd      	lsls	r5, r3, #11
 8003360:	d506      	bpl.n	8003370 <HAL_RCCEx_PeriphCLKConfig+0x82c>
 8003362:	4926      	ldr	r1, [pc, #152]	; (80033fc <HAL_RCCEx_PeriphCLKConfig+0x8b8>)
 8003364:	6f20      	ldr	r0, [r4, #112]	; 0x70
 8003366:	6d0a      	ldr	r2, [r1, #80]	; 0x50
 8003368:	f022 4200 	bic.w	r2, r2, #2147483648	; 0x80000000
 800336c:	4302      	orrs	r2, r0
 800336e:	650a      	str	r2, [r1, #80]	; 0x50
 8003370:	00d8      	lsls	r0, r3, #3
 8003372:	d507      	bpl.n	8003384 <HAL_RCCEx_PeriphCLKConfig+0x840>
 8003374:	4921      	ldr	r1, [pc, #132]	; (80033fc <HAL_RCCEx_PeriphCLKConfig+0x8b8>)
 8003376:	f8d4 00b4 	ldr.w	r0, [r4, #180]	; 0xb4
 800337a:	690a      	ldr	r2, [r1, #16]
 800337c:	f422 4280 	bic.w	r2, r2, #16384	; 0x4000
 8003380:	4302      	orrs	r2, r0
 8003382:	610a      	str	r2, [r1, #16]
 8003384:	0299      	lsls	r1, r3, #10
 8003386:	d506      	bpl.n	8003396 <HAL_RCCEx_PeriphCLKConfig+0x852>
 8003388:	491c      	ldr	r1, [pc, #112]	; (80033fc <HAL_RCCEx_PeriphCLKConfig+0x8b8>)
 800338a:	6ea0      	ldr	r0, [r4, #104]	; 0x68
 800338c:	6d0a      	ldr	r2, [r1, #80]	; 0x50
 800338e:	f022 7280 	bic.w	r2, r2, #16777216	; 0x1000000
 8003392:	4302      	orrs	r2, r0
 8003394:	650a      	str	r2, [r1, #80]	; 0x50
 8003396:	005a      	lsls	r2, r3, #1
 8003398:	d509      	bpl.n	80033ae <HAL_RCCEx_PeriphCLKConfig+0x86a>
 800339a:	4a18      	ldr	r2, [pc, #96]	; (80033fc <HAL_RCCEx_PeriphCLKConfig+0x8b8>)
 800339c:	6911      	ldr	r1, [r2, #16]
 800339e:	f421 4100 	bic.w	r1, r1, #32768	; 0x8000
 80033a2:	6111      	str	r1, [r2, #16]
 80033a4:	6911      	ldr	r1, [r2, #16]
 80033a6:	f8d4 00b8 	ldr.w	r0, [r4, #184]	; 0xb8
 80033aa:	4301      	orrs	r1, r0
 80033ac:	6111      	str	r1, [r2, #16]
 80033ae:	2b00      	cmp	r3, #0
 80033b0:	da06      	bge.n	80033c0 <HAL_RCCEx_PeriphCLKConfig+0x87c>
 80033b2:	4a12      	ldr	r2, [pc, #72]	; (80033fc <HAL_RCCEx_PeriphCLKConfig+0x8b8>)
 80033b4:	6d21      	ldr	r1, [r4, #80]	; 0x50
 80033b6:	6cd3      	ldr	r3, [r2, #76]	; 0x4c
 80033b8:	f023 5340 	bic.w	r3, r3, #805306368	; 0x30000000
 80033bc:	430b      	orrs	r3, r1
 80033be:	64d3      	str	r3, [r2, #76]	; 0x4c
 80033c0:	1c30      	adds	r0, r6, #0
 80033c2:	bf18      	it	ne
 80033c4:	2001      	movne	r0, #1
 80033c6:	e8bd 83f8 	ldmia.w	sp!, {r3, r4, r5, r6, r7, r8, r9, pc}
 80033ca:	2102      	movs	r1, #2
 80033cc:	1d20      	adds	r0, r4, #4
 80033ce:	f7ff fac9 	bl	8002964 <RCCEx_PLL2_Config>
 80033d2:	4605      	mov	r5, r0
 80033d4:	e79d      	b.n	8003312 <HAL_RCCEx_PeriphCLKConfig+0x7ce>
 80033d6:	462e      	mov	r6, r5
 80033d8:	e7a4      	b.n	8003324 <HAL_RCCEx_PeriphCLKConfig+0x7e0>
 80033da:	f5b1 7f00 	cmp.w	r1, #512	; 0x200
 80033de:	d0b6      	beq.n	800334e <HAL_RCCEx_PeriphCLKConfig+0x80a>
 80033e0:	f5b1 7f40 	cmp.w	r1, #768	; 0x300
 80033e4:	d0b3      	beq.n	800334e <HAL_RCCEx_PeriphCLKConfig+0x80a>
 80033e6:	2601      	movs	r6, #1
 80033e8:	e7b9      	b.n	800335e <HAL_RCCEx_PeriphCLKConfig+0x81a>
 80033ea:	4804      	ldr	r0, [pc, #16]	; (80033fc <HAL_RCCEx_PeriphCLKConfig+0x8b8>)
 80033ec:	6ac2      	ldr	r2, [r0, #44]	; 0x2c
 80033ee:	f442 3200 	orr.w	r2, r2, #131072	; 0x20000
 80033f2:	62c2      	str	r2, [r0, #44]	; 0x2c
 80033f4:	e7ab      	b.n	800334e <HAL_RCCEx_PeriphCLKConfig+0x80a>
 80033f6:	462e      	mov	r6, r5
 80033f8:	e7b1      	b.n	800335e <HAL_RCCEx_PeriphCLKConfig+0x81a>
 80033fa:	bf00      	nop
 80033fc:	58024400 	.word	0x58024400

08003400 <HAL_SPI_Init>:
 8003400:	b570      	push	{r4, r5, r6, lr}
 8003402:	4604      	mov	r4, r0
 8003404:	b908      	cbnz	r0, 800340a <HAL_SPI_Init+0xa>
 8003406:	2001      	movs	r0, #1
 8003408:	bd70      	pop	{r4, r5, r6, pc}
 800340a:	6802      	ldr	r2, [r0, #0]
 800340c:	2300      	movs	r3, #0
 800340e:	4940      	ldr	r1, [pc, #256]	; (8003510 <HAL_SPI_Init+0x110>)
 8003410:	6283      	str	r3, [r0, #40]	; 0x28
 8003412:	428a      	cmp	r2, r1
 8003414:	68c3      	ldr	r3, [r0, #12]
 8003416:	d009      	beq.n	800342c <HAL_SPI_Init+0x2c>
 8003418:	f5a1 4178 	sub.w	r1, r1, #63488	; 0xf800
 800341c:	428a      	cmp	r2, r1
 800341e:	d005      	beq.n	800342c <HAL_SPI_Init+0x2c>
 8003420:	f501 6180 	add.w	r1, r1, #1024	; 0x400
 8003424:	428a      	cmp	r2, r1
 8003426:	d001      	beq.n	800342c <HAL_SPI_Init+0x2c>
 8003428:	2b0f      	cmp	r3, #15
 800342a:	d8ec      	bhi.n	8003406 <HAL_SPI_Init+0x6>
 800342c:	6be1      	ldr	r1, [r4, #60]	; 0x3c
 800342e:	3308      	adds	r3, #8
 8003430:	0949      	lsrs	r1, r1, #5
 8003432:	08db      	lsrs	r3, r3, #3
 8003434:	fb01 3303 	mla	r3, r1, r3, r3
 8003438:	4935      	ldr	r1, [pc, #212]	; (8003510 <HAL_SPI_Init+0x110>)
 800343a:	428a      	cmp	r2, r1
 800343c:	d066      	beq.n	800350c <HAL_SPI_Init+0x10c>
 800343e:	f5a1 4178 	sub.w	r1, r1, #63488	; 0xf800
 8003442:	428a      	cmp	r2, r1
 8003444:	d062      	beq.n	800350c <HAL_SPI_Init+0x10c>
 8003446:	f501 6180 	add.w	r1, r1, #1024	; 0x400
 800344a:	428a      	cmp	r2, r1
 800344c:	d05e      	beq.n	800350c <HAL_SPI_Init+0x10c>
 800344e:	2b08      	cmp	r3, #8
 8003450:	d8d9      	bhi.n	8003406 <HAL_SPI_Init+0x6>
 8003452:	f894 3081 	ldrb.w	r3, [r4, #129]	; 0x81
 8003456:	f003 02ff 	and.w	r2, r3, #255	; 0xff
 800345a:	b923      	cbnz	r3, 8003466 <HAL_SPI_Init+0x66>
 800345c:	f884 2080 	strb.w	r2, [r4, #128]	; 0x80
 8003460:	4620      	mov	r0, r4
 8003462:	f7fd f92b 	bl	80006bc <HAL_SPI_MspInit>
 8003466:	2302      	movs	r3, #2
 8003468:	6822      	ldr	r2, [r4, #0]
 800346a:	6861      	ldr	r1, [r4, #4]
 800346c:	f884 3081 	strb.w	r3, [r4, #129]	; 0x81
 8003470:	6813      	ldr	r3, [r2, #0]
 8003472:	6ba5      	ldr	r5, [r4, #56]	; 0x38
 8003474:	f023 0301 	bic.w	r3, r3, #1
 8003478:	6013      	str	r3, [r2, #0]
 800347a:	69a3      	ldr	r3, [r4, #24]
 800347c:	f1b3 6f80 	cmp.w	r3, #67108864	; 0x4000000
 8003480:	d107      	bne.n	8003492 <HAL_SPI_Init+0x92>
 8003482:	f5b1 0f80 	cmp.w	r1, #4194304	; 0x400000
 8003486:	d104      	bne.n	8003492 <HAL_SPI_Init+0x92>
 8003488:	b91d      	cbnz	r5, 8003492 <HAL_SPI_Init+0x92>
 800348a:	6810      	ldr	r0, [r2, #0]
 800348c:	f440 5080 	orr.w	r0, r0, #4096	; 0x1000
 8003490:	6010      	str	r0, [r2, #0]
 8003492:	6aa6      	ldr	r6, [r4, #40]	; 0x28
 8003494:	430b      	orrs	r3, r1
 8003496:	69e0      	ldr	r0, [r4, #28]
 8003498:	432b      	orrs	r3, r5
 800349a:	4330      	orrs	r0, r6
 800349c:	6be6      	ldr	r6, [r4, #60]	; 0x3c
 800349e:	4330      	orrs	r0, r6
 80034a0:	68e6      	ldr	r6, [r4, #12]
 80034a2:	4330      	orrs	r0, r6
 80034a4:	6090      	str	r0, [r2, #8]
 80034a6:	6b60      	ldr	r0, [r4, #52]	; 0x34
 80034a8:	4303      	orrs	r3, r0
 80034aa:	6a60      	ldr	r0, [r4, #36]	; 0x24
 80034ac:	4303      	orrs	r3, r0
 80034ae:	6920      	ldr	r0, [r4, #16]
 80034b0:	4303      	orrs	r3, r0
 80034b2:	6960      	ldr	r0, [r4, #20]
 80034b4:	4303      	orrs	r3, r0
 80034b6:	6a20      	ldr	r0, [r4, #32]
 80034b8:	4303      	orrs	r3, r0
 80034ba:	6ce0      	ldr	r0, [r4, #76]	; 0x4c
 80034bc:	4303      	orrs	r3, r0
 80034be:	68a0      	ldr	r0, [r4, #8]
 80034c0:	4303      	orrs	r3, r0
 80034c2:	6ca0      	ldr	r0, [r4, #72]	; 0x48
 80034c4:	4303      	orrs	r3, r0
 80034c6:	6da0      	ldr	r0, [r4, #88]	; 0x58
 80034c8:	4303      	orrs	r3, r0
 80034ca:	60d3      	str	r3, [r2, #12]
 80034cc:	b959      	cbnz	r1, 80034e6 <HAL_SPI_Init+0xe6>
 80034ce:	6893      	ldr	r3, [r2, #8]
 80034d0:	f423 53c0 	bic.w	r3, r3, #6144	; 0x1800
 80034d4:	f443 6300 	orr.w	r3, r3, #2048	; 0x800
 80034d8:	6093      	str	r3, [r2, #8]
 80034da:	6893      	ldr	r3, [r2, #8]
 80034dc:	f423 63c0 	bic.w	r3, r3, #1536	; 0x600
 80034e0:	f443 6380 	orr.w	r3, r3, #1024	; 0x400
 80034e4:	6093      	str	r3, [r2, #8]
 80034e6:	6d13      	ldr	r3, [r2, #80]	; 0x50
 80034e8:	f023 0301 	bic.w	r3, r3, #1
 80034ec:	6513      	str	r3, [r2, #80]	; 0x50
 80034ee:	024b      	lsls	r3, r1, #9
 80034f0:	d505      	bpl.n	80034fe <HAL_SPI_Init+0xfe>
 80034f2:	68d3      	ldr	r3, [r2, #12]
 80034f4:	6d61      	ldr	r1, [r4, #84]	; 0x54
 80034f6:	f023 4300 	bic.w	r3, r3, #2147483648	; 0x80000000
 80034fa:	430b      	orrs	r3, r1
 80034fc:	60d3      	str	r3, [r2, #12]
 80034fe:	2000      	movs	r0, #0
 8003500:	2301      	movs	r3, #1
 8003502:	f8c4 0084 	str.w	r0, [r4, #132]	; 0x84
 8003506:	f884 3081 	strb.w	r3, [r4, #129]	; 0x81
 800350a:	e77d      	b.n	8003408 <HAL_SPI_Init+0x8>
 800350c:	2b10      	cmp	r3, #16
 800350e:	e79f      	b.n	8003450 <HAL_SPI_Init+0x50>
 8003510:	40013000 	.word	0x40013000

08003514 <HAL_SRAM_Init>:
 8003514:	b570      	push	{r4, r5, r6, lr}
 8003516:	460e      	mov	r6, r1
 8003518:	4615      	mov	r5, r2
 800351a:	4604      	mov	r4, r0
 800351c:	b350      	cbz	r0, 8003574 <HAL_SRAM_Init+0x60>
 800351e:	f890 3045 	ldrb.w	r3, [r0, #69]	; 0x45
 8003522:	f003 02ff 	and.w	r2, r3, #255	; 0xff
 8003526:	b91b      	cbnz	r3, 8003530 <HAL_SRAM_Init+0x1c>
 8003528:	f880 2044 	strb.w	r2, [r0, #68]	; 0x44
 800352c:	f7fc ff06 	bl	800033c <HAL_SRAM_MspInit>
 8003530:	f104 0108 	add.w	r1, r4, #8
 8003534:	6820      	ldr	r0, [r4, #0]
 8003536:	f000 f821 	bl	800357c <FMC_NORSRAM_Init>
 800353a:	68a2      	ldr	r2, [r4, #8]
 800353c:	4631      	mov	r1, r6
 800353e:	6820      	ldr	r0, [r4, #0]
 8003540:	f000 f866 	bl	8003610 <FMC_NORSRAM_Timing_Init>
 8003544:	6ae3      	ldr	r3, [r4, #44]	; 0x2c
 8003546:	68a2      	ldr	r2, [r4, #8]
 8003548:	4629      	mov	r1, r5
 800354a:	6860      	ldr	r0, [r4, #4]
 800354c:	f000 f88a 	bl	8003664 <FMC_NORSRAM_Extended_Timing_Init>
 8003550:	6822      	ldr	r2, [r4, #0]
 8003552:	68a1      	ldr	r1, [r4, #8]
 8003554:	2000      	movs	r0, #0
 8003556:	f852 3021 	ldr.w	r3, [r2, r1, lsl #2]
 800355a:	f043 0301 	orr.w	r3, r3, #1
 800355e:	f842 3021 	str.w	r3, [r2, r1, lsl #2]
 8003562:	4a05      	ldr	r2, [pc, #20]	; (8003578 <HAL_SRAM_Init+0x64>)
 8003564:	6813      	ldr	r3, [r2, #0]
 8003566:	f043 4300 	orr.w	r3, r3, #2147483648	; 0x80000000
 800356a:	6013      	str	r3, [r2, #0]
 800356c:	2301      	movs	r3, #1
 800356e:	f884 3045 	strb.w	r3, [r4, #69]	; 0x45
 8003572:	bd70      	pop	{r4, r5, r6, pc}
 8003574:	2001      	movs	r0, #1
 8003576:	e7fc      	b.n	8003572 <HAL_SRAM_Init+0x5e>
 8003578:	52004000 	.word	0x52004000

0800357c <FMC_NORSRAM_Init>:
 800357c:	680a      	ldr	r2, [r1, #0]
 800357e:	f850 3022 	ldr.w	r3, [r0, r2, lsl #2]
 8003582:	f023 0301 	bic.w	r3, r3, #1
 8003586:	b5f0      	push	{r4, r5, r6, r7, lr}
 8003588:	684e      	ldr	r6, [r1, #4]
 800358a:	f840 3022 	str.w	r3, [r0, r2, lsl #2]
 800358e:	688b      	ldr	r3, [r1, #8]
 8003590:	f850 7022 	ldr.w	r7, [r0, r2, lsl #2]
 8003594:	2b08      	cmp	r3, #8
 8003596:	ea43 0306 	orr.w	r3, r3, r6
 800359a:	68ce      	ldr	r6, [r1, #12]
 800359c:	bf0c      	ite	eq
 800359e:	f04f 0c40 	moveq.w	ip, #64	; 0x40
 80035a2:	f04f 0c00 	movne.w	ip, #0
 80035a6:	4333      	orrs	r3, r6
 80035a8:	690e      	ldr	r6, [r1, #16]
 80035aa:	4333      	orrs	r3, r6
 80035ac:	694e      	ldr	r6, [r1, #20]
 80035ae:	4333      	orrs	r3, r6
 80035b0:	698e      	ldr	r6, [r1, #24]
 80035b2:	4333      	orrs	r3, r6
 80035b4:	69ce      	ldr	r6, [r1, #28]
 80035b6:	4333      	orrs	r3, r6
 80035b8:	6a0e      	ldr	r6, [r1, #32]
 80035ba:	4333      	orrs	r3, r6
 80035bc:	6a4e      	ldr	r6, [r1, #36]	; 0x24
 80035be:	4333      	orrs	r3, r6
 80035c0:	6a8e      	ldr	r6, [r1, #40]	; 0x28
 80035c2:	4333      	orrs	r3, r6
 80035c4:	6ace      	ldr	r6, [r1, #44]	; 0x2c
 80035c6:	e9d1 540c 	ldrd	r5, r4, [r1, #48]	; 0x30
 80035ca:	4333      	orrs	r3, r6
 80035cc:	6b89      	ldr	r1, [r1, #56]	; 0x38
 80035ce:	f5b5 1f80 	cmp.w	r5, #1048576	; 0x100000
 80035d2:	ea43 0305 	orr.w	r3, r3, r5
 80035d6:	ea43 0304 	orr.w	r3, r3, r4
 80035da:	ea43 0301 	orr.w	r3, r3, r1
 80035de:	490b      	ldr	r1, [pc, #44]	; (800360c <FMC_NORSRAM_Init+0x90>)
 80035e0:	ea01 0107 	and.w	r1, r1, r7
 80035e4:	ea43 0301 	orr.w	r3, r3, r1
 80035e8:	ea43 030c 	orr.w	r3, r3, ip
 80035ec:	f840 3022 	str.w	r3, [r0, r2, lsl #2]
 80035f0:	d108      	bne.n	8003604 <FMC_NORSRAM_Init+0x88>
 80035f2:	b14a      	cbz	r2, 8003608 <FMC_NORSRAM_Init+0x8c>
 80035f4:	6803      	ldr	r3, [r0, #0]
 80035f6:	f443 1380 	orr.w	r3, r3, #1048576	; 0x100000
 80035fa:	6003      	str	r3, [r0, #0]
 80035fc:	6803      	ldr	r3, [r0, #0]
 80035fe:	431c      	orrs	r4, r3
 8003600:	6004      	str	r4, [r0, #0]
 8003602:	e001      	b.n	8003608 <FMC_NORSRAM_Init+0x8c>
 8003604:	2a00      	cmp	r2, #0
 8003606:	d1f9      	bne.n	80035fc <FMC_NORSRAM_Init+0x80>
 8003608:	2000      	movs	r0, #0
 800360a:	bdf0      	pop	{r4, r5, r6, r7, pc}
 800360c:	ffc00480 	.word	0xffc00480

08003610 <FMC_NORSRAM_Timing_Init>:
 8003610:	b570      	push	{r4, r5, r6, lr}
 8003612:	680b      	ldr	r3, [r1, #0]
 8003614:	eb00 0282 	add.w	r2, r0, r2, lsl #2
 8003618:	698e      	ldr	r6, [r1, #24]
 800361a:	690c      	ldr	r4, [r1, #16]
 800361c:	4333      	orrs	r3, r6
 800361e:	684e      	ldr	r6, [r1, #4]
 8003620:	3c01      	subs	r4, #1
 8003622:	6855      	ldr	r5, [r2, #4]
 8003624:	ea43 1306 	orr.w	r3, r3, r6, lsl #4
 8003628:	688e      	ldr	r6, [r1, #8]
 800362a:	0524      	lsls	r4, r4, #20
 800362c:	ea43 2306 	orr.w	r3, r3, r6, lsl #8
 8003630:	68ce      	ldr	r6, [r1, #12]
 8003632:	6949      	ldr	r1, [r1, #20]
 8003634:	ea43 4306 	orr.w	r3, r3, r6, lsl #16
 8003638:	3902      	subs	r1, #2
 800363a:	4323      	orrs	r3, r4
 800363c:	ea43 6301 	orr.w	r3, r3, r1, lsl #24
 8003640:	f005 4140 	and.w	r1, r5, #3221225472	; 0xc0000000
 8003644:	430b      	orrs	r3, r1
 8003646:	6053      	str	r3, [r2, #4]
 8003648:	6803      	ldr	r3, [r0, #0]
 800364a:	02db      	lsls	r3, r3, #11
 800364c:	d508      	bpl.n	8003660 <FMC_NORSRAM_Timing_Init+0x50>
 800364e:	6842      	ldr	r2, [r0, #4]
 8003650:	6843      	ldr	r3, [r0, #4]
 8003652:	f422 0270 	bic.w	r2, r2, #15728640	; 0xf00000
 8003656:	f423 0370 	bic.w	r3, r3, #15728640	; 0xf00000
 800365a:	4314      	orrs	r4, r2
 800365c:	431c      	orrs	r4, r3
 800365e:	6044      	str	r4, [r0, #4]
 8003660:	2000      	movs	r0, #0
 8003662:	bd70      	pop	{r4, r5, r6, pc}

08003664 <FMC_NORSRAM_Extended_Timing_Init>:
 8003664:	f5b3 4f80 	cmp.w	r3, #16384	; 0x4000
 8003668:	b530      	push	{r4, r5, lr}
 800366a:	d114      	bne.n	8003696 <FMC_NORSRAM_Extended_Timing_Init+0x32>
 800366c:	698d      	ldr	r5, [r1, #24]
 800366e:	680b      	ldr	r3, [r1, #0]
 8003670:	f850 4022 	ldr.w	r4, [r0, r2, lsl #2]
 8003674:	432b      	orrs	r3, r5
 8003676:	684d      	ldr	r5, [r1, #4]
 8003678:	ea43 1305 	orr.w	r3, r3, r5, lsl #4
 800367c:	688d      	ldr	r5, [r1, #8]
 800367e:	68c9      	ldr	r1, [r1, #12]
 8003680:	ea43 2305 	orr.w	r3, r3, r5, lsl #8
 8003684:	ea43 4301 	orr.w	r3, r3, r1, lsl #16
 8003688:	4904      	ldr	r1, [pc, #16]	; (800369c <FMC_NORSRAM_Extended_Timing_Init+0x38>)
 800368a:	4021      	ands	r1, r4
 800368c:	430b      	orrs	r3, r1
 800368e:	f840 3022 	str.w	r3, [r0, r2, lsl #2]
 8003692:	2000      	movs	r0, #0
 8003694:	bd30      	pop	{r4, r5, pc}
 8003696:	f06f 4370 	mvn.w	r3, #4026531840	; 0xf0000000
 800369a:	e7f8      	b.n	800368e <FMC_NORSRAM_Extended_Timing_Init+0x2a>
 800369c:	cff00000 	.word	0xcff00000

080036a0 <__libc_init_array>:
 80036a0:	b570      	push	{r4, r5, r6, lr}
 80036a2:	4e0d      	ldr	r6, [pc, #52]	; (80036d8 <__libc_init_array+0x38>)
 80036a4:	4c0d      	ldr	r4, [pc, #52]	; (80036dc <__libc_init_array+0x3c>)
 80036a6:	1ba4      	subs	r4, r4, r6
 80036a8:	10a4      	asrs	r4, r4, #2
 80036aa:	2500      	movs	r5, #0
 80036ac:	42a5      	cmp	r5, r4
 80036ae:	d109      	bne.n	80036c4 <__libc_init_array+0x24>
 80036b0:	4e0b      	ldr	r6, [pc, #44]	; (80036e0 <__libc_init_array+0x40>)
 80036b2:	4c0c      	ldr	r4, [pc, #48]	; (80036e4 <__libc_init_array+0x44>)
 80036b4:	f000 f820 	bl	80036f8 <_init>
 80036b8:	1ba4      	subs	r4, r4, r6
 80036ba:	10a4      	asrs	r4, r4, #2
 80036bc:	2500      	movs	r5, #0
 80036be:	42a5      	cmp	r5, r4
 80036c0:	d105      	bne.n	80036ce <__libc_init_array+0x2e>
 80036c2:	bd70      	pop	{r4, r5, r6, pc}
 80036c4:	f856 3025 	ldr.w	r3, [r6, r5, lsl #2]
 80036c8:	4798      	blx	r3
 80036ca:	3501      	adds	r5, #1
 80036cc:	e7ee      	b.n	80036ac <__libc_init_array+0xc>
 80036ce:	f856 3025 	ldr.w	r3, [r6, r5, lsl #2]
 80036d2:	4798      	blx	r3
 80036d4:	3501      	adds	r5, #1
 80036d6:	e7f2      	b.n	80036be <__libc_init_array+0x1e>
 80036d8:	08003720 	.word	0x08003720
 80036dc:	08003720 	.word	0x08003720
 80036e0:	08003720 	.word	0x08003720
 80036e4:	08003724 	.word	0x08003724

080036e8 <memset>:
 80036e8:	4402      	add	r2, r0
 80036ea:	4603      	mov	r3, r0
 80036ec:	4293      	cmp	r3, r2
 80036ee:	d100      	bne.n	80036f2 <memset+0xa>
 80036f0:	4770      	bx	lr
 80036f2:	f803 1b01 	strb.w	r1, [r3], #1
 80036f6:	e7f9      	b.n	80036ec <memset+0x4>

080036f8 <_init>:
 80036f8:	b5f8      	push	{r3, r4, r5, r6, r7, lr}
 80036fa:	bf00      	nop
 80036fc:	bcf8      	pop	{r3, r4, r5, r6, r7}
 80036fe:	bc08      	pop	{r3}
 8003700:	469e      	mov	lr, r3
 8003702:	4770      	bx	lr

08003704 <_fini>:
 8003704:	b5f8      	push	{r3, r4, r5, r6, r7, lr}
 8003706:	bf00      	nop
 8003708:	bcf8      	pop	{r3, r4, r5, r6, r7}
 800370a:	bc08      	pop	{r3}
 800370c:	469e      	mov	lr, r3
 800370e:	4770      	bx	lr
